ARM GAS  C:\Users\Vento\AppData\Local\Temp\ccEg74I3.s 			page 1


   1              		.cpu cortex-m3
   2              		.eabi_attribute 20, 1
   3              		.eabi_attribute 21, 1
   4              		.eabi_attribute 23, 3
   5              		.eabi_attribute 24, 1
   6              		.eabi_attribute 25, 1
   7              		.eabi_attribute 26, 1
   8              		.eabi_attribute 30, 1
   9              		.eabi_attribute 34, 1
  10              		.eabi_attribute 18, 4
  11              		.file	"freertos.c"
  12              		.text
  13              	.Ltext0:
  14              		.cfi_sections	.debug_frame
  15              		.section	.rodata.MQTT_Task.str1.4,"aMS",%progbits,1
  16              		.align	2
  17              	.LC0:
  18 0000 6D332D77 		.ascii	"m3-world\000"
  18      6F726C64 
  18      00
  19 0009 000000   		.align	2
  20              	.LC1:
  21 000c 6D6D7300 		.ascii	"mms\000"
  22              		.align	2
  23              	.LC2:
  24 0010 7468656F 		.ascii	"theodoihensuyen.vn\000"
  24      646F6968 
  24      656E7375 
  24      79656E2E 
  24      766E00
  25 0023 00       		.align	2
  26              	.LC3:
  27 0024 00       		.ascii	"\000"
  28 0025 000000   		.align	2
  29              	.LC4:
  30 0028 74657374 		.ascii	"testPub\000"
  30      50756200 
  31              		.global	__aeabi_fcmpeq
  32              		.align	2
  33              	.LC5:
  34 0030 4D414E44 		.ascii	"MANDevices/Roof_Garden/Node_1_Environment/Temperatu"
  34      65766963 
  34      65732F52 
  34      6F6F665F 
  34      47617264 
  35 0063 726500   		.ascii	"re\000"
  36              		.section	.text.MQTT_Task,"ax",%progbits
  37              		.align	1
  38              		.global	MQTT_Task
  39              		.arch armv7-m
  40              		.syntax unified
  41              		.thumb
  42              		.thumb_func
  43              		.fpu softvfp
  45              	MQTT_Task:
  46              	.LVL0:
  47              	.LFB70:
ARM GAS  C:\Users\Vento\AppData\Local\Temp\ccEg74I3.s 			page 2


  48              		.file 1 "Core/Src/freertos.c"
   1:Core/Src/freertos.c **** /* USER CODE BEGIN Header */
   2:Core/Src/freertos.c **** /**
   3:Core/Src/freertos.c ****   ******************************************************************************
   4:Core/Src/freertos.c ****   * File Name          : freertos.c
   5:Core/Src/freertos.c ****   * Description        : Code for freertos applications
   6:Core/Src/freertos.c ****   ******************************************************************************
   7:Core/Src/freertos.c ****   * @attention
   8:Core/Src/freertos.c ****   *
   9:Core/Src/freertos.c ****   * <h2><center>&copy; Copyright (c) 2021 STMicroelectronics.
  10:Core/Src/freertos.c ****   * All rights reserved.</center></h2>
  11:Core/Src/freertos.c ****   *
  12:Core/Src/freertos.c ****   * This software component is licensed by ST under Ultimate Liberty license
  13:Core/Src/freertos.c ****   * SLA0044, the "License"; You may not use this file except in compliance with
  14:Core/Src/freertos.c ****   * the License. You may obtain a copy of the License at:
  15:Core/Src/freertos.c ****   *                             www.st.com/SLA0044
  16:Core/Src/freertos.c ****   *
  17:Core/Src/freertos.c ****   ******************************************************************************
  18:Core/Src/freertos.c ****   */
  19:Core/Src/freertos.c **** /* USER CODE END Header */
  20:Core/Src/freertos.c **** 
  21:Core/Src/freertos.c **** /* Includes ------------------------------------------------------------------*/
  22:Core/Src/freertos.c **** #include "FreeRTOS.h"
  23:Core/Src/freertos.c **** #include "task.h"
  24:Core/Src/freertos.c **** #include "main.h"
  25:Core/Src/freertos.c **** #include "cmsis_os.h"
  26:Core/Src/freertos.c **** 
  27:Core/Src/freertos.c **** /* Private includes ----------------------------------------------------------*/
  28:Core/Src/freertos.c **** /* USER CODE BEGIN Includes */
  29:Core/Src/freertos.c **** 
  30:Core/Src/freertos.c **** #include "MQTTSim800.h"
  31:Core/Src/freertos.c **** #include "lcd.h"
  32:Core/Src/freertos.c **** #include "i2c.h"
  33:Core/Src/freertos.c **** #include "timers.h"
  34:Core/Src/freertos.c **** 
  35:Core/Src/freertos.c **** /* USER CODE END Includes */
  36:Core/Src/freertos.c **** 
  37:Core/Src/freertos.c **** /* Private typedef -----------------------------------------------------------*/
  38:Core/Src/freertos.c **** /* USER CODE BEGIN PTD */
  39:Core/Src/freertos.c **** typedef struct
  40:Core/Src/freertos.c **** {
  41:Core/Src/freertos.c ****   bool state;
  42:Core/Src/freertos.c ****   GPIO_TypeDef* GPIO_Port;
  43:Core/Src/freertos.c ****   uint16_t Pin;
  44:Core/Src/freertos.c **** } Power;
  45:Core/Src/freertos.c **** 
  46:Core/Src/freertos.c **** typedef struct
  47:Core/Src/freertos.c **** {
  48:Core/Src/freertos.c ****   double voltage;
  49:Core/Src/freertos.c **** } Level;
  50:Core/Src/freertos.c **** 
  51:Core/Src/freertos.c **** typedef struct
  52:Core/Src/freertos.c **** {
  53:Core/Src/freertos.c ****   float Temperature;
  54:Core/Src/freertos.c ****   float Humidity;
  55:Core/Src/freertos.c ****   uint8_t AHT10_RX_Data[6];
  56:Core/Src/freertos.c ****   uint32_t AHT10_ADC_Raw;
ARM GAS  C:\Users\Vento\AppData\Local\Temp\ccEg74I3.s 			page 3


  57:Core/Src/freertos.c **** } Node;
  58:Core/Src/freertos.c **** 
  59:Core/Src/freertos.c **** typedef enum
  60:Core/Src/freertos.c **** {
  61:Core/Src/freertos.c ****   SLEEPING = 0,
  62:Core/Src/freertos.c ****   RUNNING = 1
  63:Core/Src/freertos.c **** } Mode;
  64:Core/Src/freertos.c **** 
  65:Core/Src/freertos.c **** typedef enum
  66:Core/Src/freertos.c **** {
  67:Core/Src/freertos.c ****   ADAPTER = 0,
  68:Core/Src/freertos.c ****   BATTERY = 1,
  69:Core/Src/freertos.c ****   BOTH = 2
  70:Core/Src/freertos.c **** } PowerMode;
  71:Core/Src/freertos.c **** 
  72:Core/Src/freertos.c **** typedef struct
  73:Core/Src/freertos.c **** {
  74:Core/Src/freertos.c ****   bool SIM;
  75:Core/Src/freertos.c ****   bool GPRS;
  76:Core/Src/freertos.c ****   bool MQTT;
  77:Core/Src/freertos.c ****   bool SENDING;
  78:Core/Src/freertos.c **** } SIM800_St;
  79:Core/Src/freertos.c **** 
  80:Core/Src/freertos.c **** typedef struct
  81:Core/Src/freertos.c **** {
  82:Core/Src/freertos.c ****   uint32_t MQTT_Task_Time[3];
  83:Core/Src/freertos.c ****   uint32_t LCD_Display_Time[3];
  84:Core/Src/freertos.c ****   uint32_t Measure_Time[3];
  85:Core/Src/freertos.c ****   uint32_t IRQ_Time[3];
  86:Core/Src/freertos.c **** } Time;
  87:Core/Src/freertos.c **** /* USER CODE END PTD */
  88:Core/Src/freertos.c **** 
  89:Core/Src/freertos.c **** /* Private define ------------------------------------------------------------*/
  90:Core/Src/freertos.c **** /* USER CODE BEGIN PD */
  91:Core/Src/freertos.c **** #define AHT10_ADDRESS_1 (0x38 << 1) // 0b1110000; Adress[7-bit]Wite/Read[1-bit]
  92:Core/Src/freertos.c **** #define AHT10_ADDRESS_2 (0x39 << 1) // 0b1110000; Adress[7-bit]Wite/Read[1-bit]
  93:Core/Src/freertos.c **** 
  94:Core/Src/freertos.c **** #define TimeOut       60000
  95:Core/Src/freertos.c **** #define MeasurePeriod 3000
  96:Core/Src/freertos.c **** #define ActionPeriod  15000
  97:Core/Src/freertos.c **** #define VCC   (3.333)
  98:Core/Src/freertos.c **** 
  99:Core/Src/freertos.c **** #define MAX_PWM_COUNT 250
 100:Core/Src/freertos.c **** #define MIN_PWM_COUNT 50
 101:Core/Src/freertos.c **** 
 102:Core/Src/freertos.c **** #define MAX_DEG 180
 103:Core/Src/freertos.c **** #define MIN_DEG 0
 104:Core/Src/freertos.c **** 
 105:Core/Src/freertos.c **** /* USER CODE END PD */
 106:Core/Src/freertos.c **** 
 107:Core/Src/freertos.c **** /* Private macro -------------------------------------------------------------*/
 108:Core/Src/freertos.c **** /* USER CODE BEGIN PM */
 109:Core/Src/freertos.c **** 
 110:Core/Src/freertos.c **** /* USER CODE END PM */
 111:Core/Src/freertos.c **** 
 112:Core/Src/freertos.c **** /* Private variables ---------------------------------------------------------*/
 113:Core/Src/freertos.c **** /* USER CODE BEGIN Variables */
ARM GAS  C:\Users\Vento\AppData\Local\Temp\ccEg74I3.s 			page 4


 114:Core/Src/freertos.c **** extern SPI_HandleTypeDef hspi2;
 115:Core/Src/freertos.c **** extern I2C_HandleTypeDef hi2c1;
 116:Core/Src/freertos.c **** extern ADC_HandleTypeDef hadc1;
 117:Core/Src/freertos.c **** extern TIM_HandleTypeDef htim2;
 118:Core/Src/freertos.c **** extern IWDG_HandleTypeDef hiwdg;
 119:Core/Src/freertos.c **** extern SIM800_t SIM800;
 120:Core/Src/freertos.c **** extern SIM800_St SIM800_Status;
 121:Core/Src/freertos.c **** 
 122:Core/Src/freertos.c **** Power Adapter = {false, GPIOB, GPIO_PIN_8};
 123:Core/Src/freertos.c **** Power Batt = {false, GPIOB, GPIO_PIN_9};
 124:Core/Src/freertos.c **** Power Pump = {false, GPIOC, GPIO_PIN_13};
 125:Core/Src/freertos.c **** Node Node_1 = {0, 0, {0}, 0};
 126:Core/Src/freertos.c **** Node Node_2 = {0, 0, {0}, 0};
 127:Core/Src/freertos.c **** float DirtHumd = 0;
 128:Core/Src/freertos.c **** Level LipoBatt = {0};
 129:Core/Src/freertos.c **** Level Solar = {0};
 130:Core/Src/freertos.c **** PowerMode PowerSate = BOTH;
 131:Core/Src/freertos.c **** uint16_t PWM_Count = MIN_PWM_COUNT;
 132:Core/Src/freertos.c **** uint8_t PWM_State = false;
 133:Core/Src/freertos.c **** uint8_t Deg = MIN_DEG;
 134:Core/Src/freertos.c **** 
 135:Core/Src/freertos.c **** Mode DeviceState = RUNNING;
 136:Core/Src/freertos.c **** uint8_t CurrentPage = 0;
 137:Core/Src/freertos.c **** Time Time_Check = {{0}, {0}, {0}, {0}};
 138:Core/Src/freertos.c **** 
 139:Core/Src/freertos.c **** myButton_t Button_1 = {175, 185, 0, 35, 26, ILI9341_WHITE, false, NULL};
 140:Core/Src/freertos.c **** myButton_t Button_2 = {250, 185, 0, 50, 26, ILI9341_WHITE, false, NULL};
 141:Core/Src/freertos.c **** 
 142:Core/Src/freertos.c **** /* USER CODE END Variables */
 143:Core/Src/freertos.c **** /* Definitions for SIM */
 144:Core/Src/freertos.c **** osThreadId_t SIMHandle;
 145:Core/Src/freertos.c **** const osThreadAttr_t SIM_attributes = {
 146:Core/Src/freertos.c ****   .name = "SIM",
 147:Core/Src/freertos.c ****   .stack_size = 250 * 4,
 148:Core/Src/freertos.c ****   .priority = (osPriority_t) osPriorityNormal,
 149:Core/Src/freertos.c **** };
 150:Core/Src/freertos.c **** /* Definitions for LCD */
 151:Core/Src/freertos.c **** osThreadId_t LCDHandle;
 152:Core/Src/freertos.c **** const osThreadAttr_t LCD_attributes = {
 153:Core/Src/freertos.c ****   .name = "LCD",
 154:Core/Src/freertos.c ****   .stack_size = 220 * 4,
 155:Core/Src/freertos.c ****   .priority = (osPriority_t) osPriorityNormal4,
 156:Core/Src/freertos.c **** };
 157:Core/Src/freertos.c **** /* Definitions for IRQ */
 158:Core/Src/freertos.c **** osThreadId_t IRQHandle;
 159:Core/Src/freertos.c **** const osThreadAttr_t IRQ_attributes = {
 160:Core/Src/freertos.c ****   .name = "IRQ",
 161:Core/Src/freertos.c ****   .stack_size = 100 * 4,
 162:Core/Src/freertos.c ****   .priority = (osPriority_t) osPriorityAboveNormal,
 163:Core/Src/freertos.c **** };
 164:Core/Src/freertos.c **** /* Definitions for Timer01 */
 165:Core/Src/freertos.c **** osTimerId_t Timer01Handle;
 166:Core/Src/freertos.c **** const osTimerAttr_t Timer01_attributes = {
 167:Core/Src/freertos.c ****   .name = "Timer01"
 168:Core/Src/freertos.c **** };
 169:Core/Src/freertos.c **** /* Definitions for Timer02 */
 170:Core/Src/freertos.c **** osTimerId_t Timer02Handle;
ARM GAS  C:\Users\Vento\AppData\Local\Temp\ccEg74I3.s 			page 5


 171:Core/Src/freertos.c **** const osTimerAttr_t Timer02_attributes = {
 172:Core/Src/freertos.c ****   .name = "Timer02"
 173:Core/Src/freertos.c **** };
 174:Core/Src/freertos.c **** /* Definitions for Timer03 */
 175:Core/Src/freertos.c **** osTimerId_t Timer03Handle;
 176:Core/Src/freertos.c **** const osTimerAttr_t Timer03_attributes = {
 177:Core/Src/freertos.c ****   .name = "Timer03"
 178:Core/Src/freertos.c **** };
 179:Core/Src/freertos.c **** /* Definitions for BinarySem01 */
 180:Core/Src/freertos.c **** osSemaphoreId_t BinarySem01Handle;
 181:Core/Src/freertos.c **** const osSemaphoreAttr_t BinarySem01_attributes = {
 182:Core/Src/freertos.c ****   .name = "BinarySem01"
 183:Core/Src/freertos.c **** };
 184:Core/Src/freertos.c **** /* Definitions for BinarySem02 */
 185:Core/Src/freertos.c **** osSemaphoreId_t BinarySem02Handle;
 186:Core/Src/freertos.c **** const osSemaphoreAttr_t BinarySem02_attributes = {
 187:Core/Src/freertos.c ****   .name = "BinarySem02"
 188:Core/Src/freertos.c **** };
 189:Core/Src/freertos.c **** 
 190:Core/Src/freertos.c **** /* Private function prototypes -----------------------------------------------*/
 191:Core/Src/freertos.c **** /* USER CODE BEGIN FunctionPrototypes */
 192:Core/Src/freertos.c **** 
 193:Core/Src/freertos.c **** uint16_t Deg2PWMCount(uint8_t deg);
 194:Core/Src/freertos.c **** 
 195:Core/Src/freertos.c **** /* USER CODE END FunctionPrototypes */
 196:Core/Src/freertos.c **** 
 197:Core/Src/freertos.c **** void MQTT_Task(void *argument);
 198:Core/Src/freertos.c **** void Display_Task(void *argument);
 199:Core/Src/freertos.c **** void IRQ_Task(void *argument);
 200:Core/Src/freertos.c **** void Action_Timer(void *argument);
 201:Core/Src/freertos.c **** void LCD_TimeOut(void *argument);
 202:Core/Src/freertos.c **** void Measure_Timer(void *argument);
 203:Core/Src/freertos.c **** 
 204:Core/Src/freertos.c **** void MX_FREERTOS_Init(void); /* (MISRA C 2004 rule 8.1) */
 205:Core/Src/freertos.c **** 
 206:Core/Src/freertos.c **** /**
 207:Core/Src/freertos.c ****   * @brief  FreeRTOS initialization
 208:Core/Src/freertos.c ****   * @param  None
 209:Core/Src/freertos.c ****   * @retval None
 210:Core/Src/freertos.c ****   */
 211:Core/Src/freertos.c **** void MX_FREERTOS_Init(void) {
 212:Core/Src/freertos.c ****   /* USER CODE BEGIN Init */
 213:Core/Src/freertos.c **** 
 214:Core/Src/freertos.c ****   /* USER CODE END Init */
 215:Core/Src/freertos.c **** 
 216:Core/Src/freertos.c ****   /* USER CODE BEGIN RTOS_MUTEX */
 217:Core/Src/freertos.c ****   /* add mutexes, ... */
 218:Core/Src/freertos.c ****   /* USER CODE END RTOS_MUTEX */
 219:Core/Src/freertos.c **** 
 220:Core/Src/freertos.c ****   /* Create the semaphores(s) */
 221:Core/Src/freertos.c ****   /* creation of BinarySem01 */
 222:Core/Src/freertos.c ****   BinarySem01Handle = osSemaphoreNew(1, 0, &BinarySem01_attributes);
 223:Core/Src/freertos.c **** 
 224:Core/Src/freertos.c ****   /* creation of BinarySem02 */
 225:Core/Src/freertos.c ****   BinarySem02Handle = osSemaphoreNew(1, 0, &BinarySem02_attributes);
 226:Core/Src/freertos.c **** 
 227:Core/Src/freertos.c ****   /* USER CODE BEGIN RTOS_SEMAPHORES */
ARM GAS  C:\Users\Vento\AppData\Local\Temp\ccEg74I3.s 			page 6


 228:Core/Src/freertos.c ****   /* add semaphores, ... */
 229:Core/Src/freertos.c ****   /* USER CODE END RTOS_SEMAPHORES */
 230:Core/Src/freertos.c **** 
 231:Core/Src/freertos.c ****   /* Create the timer(s) */
 232:Core/Src/freertos.c ****   /* creation of Timer01 */
 233:Core/Src/freertos.c ****   Timer01Handle = osTimerNew(Action_Timer, osTimerPeriodic, NULL, &Timer01_attributes);
 234:Core/Src/freertos.c **** 
 235:Core/Src/freertos.c ****   /* creation of Timer02 */
 236:Core/Src/freertos.c ****   Timer02Handle = osTimerNew(LCD_TimeOut, osTimerOnce, NULL, &Timer02_attributes);
 237:Core/Src/freertos.c **** 
 238:Core/Src/freertos.c ****   /* creation of Timer03 */
 239:Core/Src/freertos.c ****   Timer03Handle = osTimerNew(Measure_Timer, osTimerPeriodic, NULL, &Timer03_attributes);
 240:Core/Src/freertos.c **** 
 241:Core/Src/freertos.c ****   /* USER CODE BEGIN RTOS_TIMERS */
 242:Core/Src/freertos.c ****   /* start timers, add new ones, ... */
 243:Core/Src/freertos.c ****   /* USER CODE END RTOS_TIMERS */
 244:Core/Src/freertos.c **** 
 245:Core/Src/freertos.c ****   /* USER CODE BEGIN RTOS_QUEUES */
 246:Core/Src/freertos.c ****   /* add queues, ... */
 247:Core/Src/freertos.c ****   /* USER CODE END RTOS_QUEUES */
 248:Core/Src/freertos.c **** 
 249:Core/Src/freertos.c ****   /* Create the thread(s) */
 250:Core/Src/freertos.c ****   /* creation of SIM */
 251:Core/Src/freertos.c ****   SIMHandle = osThreadNew(MQTT_Task, NULL, &SIM_attributes);
 252:Core/Src/freertos.c **** 
 253:Core/Src/freertos.c ****   /* creation of LCD */
 254:Core/Src/freertos.c ****   LCDHandle = osThreadNew(Display_Task, NULL, &LCD_attributes);
 255:Core/Src/freertos.c **** 
 256:Core/Src/freertos.c ****   /* creation of IRQ */
 257:Core/Src/freertos.c ****   IRQHandle = osThreadNew(IRQ_Task, NULL, &IRQ_attributes);
 258:Core/Src/freertos.c **** 
 259:Core/Src/freertos.c ****   /* USER CODE BEGIN RTOS_THREADS */
 260:Core/Src/freertos.c ****   /* add threads, ... */
 261:Core/Src/freertos.c ****   /* USER CODE END RTOS_THREADS */
 262:Core/Src/freertos.c **** 
 263:Core/Src/freertos.c ****   /* USER CODE BEGIN RTOS_EVENTS */
 264:Core/Src/freertos.c ****   /* add events, ... */
 265:Core/Src/freertos.c ****   /* USER CODE END RTOS_EVENTS */
 266:Core/Src/freertos.c **** 
 267:Core/Src/freertos.c **** }
 268:Core/Src/freertos.c **** 
 269:Core/Src/freertos.c **** /* USER CODE BEGIN Header_MQTT_Task */
 270:Core/Src/freertos.c **** /**
 271:Core/Src/freertos.c **** * @brief Function implementing the SIM thread.
 272:Core/Src/freertos.c **** * @param argument: Not used
 273:Core/Src/freertos.c **** * @retval None
 274:Core/Src/freertos.c **** */
 275:Core/Src/freertos.c **** /* USER CODE END Header_MQTT_Task */
 276:Core/Src/freertos.c **** void MQTT_Task(void *argument)
 277:Core/Src/freertos.c **** {
  49              		.loc 1 277 1 view -0
  50              		.cfi_startproc
  51              		@ args = 0, pretend = 0, frame = 0
  52              		@ frame_needed = 0, uses_anonymous_args = 0
  53              		.loc 1 277 1 is_stmt 0 view .LVU1
  54 0000 38B5     		push	{r3, r4, r5, lr}
  55              	.LCFI0:
ARM GAS  C:\Users\Vento\AppData\Local\Temp\ccEg74I3.s 			page 7


  56              		.cfi_def_cfa_offset 16
  57              		.cfi_offset 3, -16
  58              		.cfi_offset 4, -12
  59              		.cfi_offset 5, -8
  60              		.cfi_offset 14, -4
 278:Core/Src/freertos.c ****   /* USER CODE BEGIN MQTT_Task */
 279:Core/Src/freertos.c ****   SIM800.sim.apn = "m3-world";
  61              		.loc 1 279 3 is_stmt 1 view .LVU2
  62              		.loc 1 279 18 is_stmt 0 view .LVU3
  63 0002 304B     		ldr	r3, .L13
  64 0004 304A     		ldr	r2, .L13+4
  65 0006 1A60     		str	r2, [r3]
 280:Core/Src/freertos.c ****   SIM800.sim.apn_user = "mms";
  66              		.loc 1 280 3 is_stmt 1 view .LVU4
  67              		.loc 1 280 23 is_stmt 0 view .LVU5
  68 0008 304A     		ldr	r2, .L13+8
  69 000a 5A60     		str	r2, [r3, #4]
 281:Core/Src/freertos.c ****   SIM800.sim.apn_pass = "mms";
  70              		.loc 1 281 3 is_stmt 1 view .LVU6
  71              		.loc 1 281 23 is_stmt 0 view .LVU7
  72 000c 9A60     		str	r2, [r3, #8]
 282:Core/Src/freertos.c ****   SIM800.mqttServer.host = "theodoihensuyen.vn";
  73              		.loc 1 282 3 is_stmt 1 view .LVU8
  74              		.loc 1 282 26 is_stmt 0 view .LVU9
  75 000e 304A     		ldr	r2, .L13+12
  76 0010 DA60     		str	r2, [r3, #12]
 283:Core/Src/freertos.c ****   SIM800.mqttServer.port = 1883;
  77              		.loc 1 283 3 is_stmt 1 view .LVU10
  78              		.loc 1 283 26 is_stmt 0 view .LVU11
  79 0012 40F25B72 		movw	r2, #1883
  80 0016 1A82     		strh	r2, [r3, #16]	@ movhi
 284:Core/Src/freertos.c ****   SIM800.mqttClient.username = "";
  81              		.loc 1 284 3 is_stmt 1 view .LVU12
  82              		.loc 1 284 30 is_stmt 0 view .LVU13
  83 0018 2E4A     		ldr	r2, .L13+16
  84 001a 5A61     		str	r2, [r3, #20]
 285:Core/Src/freertos.c ****   SIM800.mqttClient.clientID = "testPub";
  85              		.loc 1 285 3 is_stmt 1 view .LVU14
  86              		.loc 1 285 30 is_stmt 0 view .LVU15
  87 001c 2E49     		ldr	r1, .L13+20
  88 001e D961     		str	r1, [r3, #28]
 286:Core/Src/freertos.c ****   SIM800.mqttClient.pass = "";
  89              		.loc 1 286 3 is_stmt 1 view .LVU16
  90              		.loc 1 286 26 is_stmt 0 view .LVU17
  91 0020 9A61     		str	r2, [r3, #24]
 287:Core/Src/freertos.c ****   SIM800.mqttClient.keepAliveInterval = 120;
  92              		.loc 1 287 3 is_stmt 1 view .LVU18
  93              		.loc 1 287 39 is_stmt 0 view .LVU19
  94 0022 7822     		movs	r2, #120
  95 0024 1A84     		strh	r2, [r3, #32]	@ movhi
 288:Core/Src/freertos.c **** 
 289:Core/Src/freertos.c ****   bool ping = false;
  96              		.loc 1 289 3 is_stmt 1 view .LVU20
  97              	.LVL1:
 290:Core/Src/freertos.c **** 
 291:Core/Src/freertos.c ****   osDelay(2000);
  98              		.loc 1 291 3 view .LVU21
ARM GAS  C:\Users\Vento\AppData\Local\Temp\ccEg74I3.s 			page 8


  99 0026 4FF4FA60 		mov	r0, #2000
 100              	.LVL2:
 101              		.loc 1 291 3 is_stmt 0 view .LVU22
 102 002a FFF7FEFF 		bl	osDelay
 103              	.LVL3:
 292:Core/Src/freertos.c ****   MQTT_Init();
 104              		.loc 1 292 3 is_stmt 1 view .LVU23
 105 002e FFF7FEFF 		bl	MQTT_Init
 106              	.LVL4:
 293:Core/Src/freertos.c ****   osDelay(1000);
 107              		.loc 1 293 3 view .LVU24
 108 0032 4FF47A70 		mov	r0, #1000
 109 0036 FFF7FEFF 		bl	osDelay
 110              	.LVL5:
 289:Core/Src/freertos.c **** 
 111              		.loc 1 289 8 is_stmt 0 view .LVU25
 112 003a 0024     		movs	r4, #0
 113 003c 0CE0     		b	.L2
 114              	.LVL6:
 115              	.L3:
 294:Core/Src/freertos.c ****   /* Infinite loop */
 295:Core/Src/freertos.c ****   for(;;)
 296:Core/Src/freertos.c ****   {
 297:Core/Src/freertos.c ****     if (osSemaphoreAcquire(BinarySem02Handle, portMAX_DELAY) == osOK)
 298:Core/Src/freertos.c ****     {
 299:Core/Src/freertos.c ****       Time_Check.MQTT_Task_Time[0] = HAL_GetTick();
 300:Core/Src/freertos.c ****       if((SIM800.mqttServer.connect == 0) || (SIM800_Status.SIM == 0) || (SIM800_Status.GPRS == 0) 
 301:Core/Src/freertos.c ****       {
 302:Core/Src/freertos.c ****         MQTT_Init();
 116              		.loc 1 302 9 is_stmt 1 view .LVU26
 117 003e FFF7FEFF 		bl	MQTT_Init
 118              	.LVL7:
 119              	.L5:
 303:Core/Src/freertos.c ****       }
 304:Core/Src/freertos.c ****       else if (!ping)
 305:Core/Src/freertos.c ****       {
 306:Core/Src/freertos.c ****         SIM800_Status.SENDING = true;
 307:Core/Src/freertos.c ****         if (Node_1.Temperature != 0.0)  {MQTT_PubFloat("MANDevices/Roof_Garden/Node_1_Environment/T
 308:Core/Src/freertos.c ****         // if (Node_1.Humidity != 0.0)     {MQTT_PubUint32("MANDevices/Roof_Garden/Node_1_Environme
 309:Core/Src/freertos.c ****         // if (Node_2.Temperature != 0.0)  {MQTT_PubFloat("MANDevices/Roof_Garden/Node_2_Environmen
 310:Core/Src/freertos.c ****         // if (Node_2.Humidity != 0.0)     {MQTT_PubUint32("MANDevices/Roof_Garden/Node_2_Environme
 311:Core/Src/freertos.c ****         // if (DirtHumd != 0.0)            {MQTT_PubFloat("MANDevices/Roof_Garden/Dirt_Enviroment/H
 312:Core/Src/freertos.c ****         // if (LipoBatt.voltage != 0.0)    {MQTT_PubFloat("MANDevices/Roof_Garden/Device_Power/Lipo
 313:Core/Src/freertos.c ****         // if (Solar.voltage != 0.0)       {MQTT_PubFloat("MANDevices/Roof_Garden/Device_Power/Sola
 314:Core/Src/freertos.c ****         SIM800_Status.SENDING = false;
 315:Core/Src/freertos.c ****         ping = true;
 316:Core/Src/freertos.c ****       }
 317:Core/Src/freertos.c ****       else if (ping)
 318:Core/Src/freertos.c ****       {
 319:Core/Src/freertos.c ****         MQTT_PingReq();
 320:Core/Src/freertos.c ****         ping = false;
 321:Core/Src/freertos.c ****       }
 322:Core/Src/freertos.c ****       Time_Check.MQTT_Task_Time[1] = HAL_GetTick();
 120              		.loc 1 322 7 view .LVU27
 121              		.loc 1 322 38 is_stmt 0 view .LVU28
 122 0042 FFF7FEFF 		bl	HAL_GetTick
 123              	.LVL8:
ARM GAS  C:\Users\Vento\AppData\Local\Temp\ccEg74I3.s 			page 9


 124              		.loc 1 322 36 view .LVU29
 125 0046 254B     		ldr	r3, .L13+24
 126 0048 5860     		str	r0, [r3, #4]
 323:Core/Src/freertos.c ****       Time_Check.MQTT_Task_Time[2] = Time_Check.MQTT_Task_Time[1] - Time_Check.MQTT_Task_Time[0];
 127              		.loc 1 323 7 is_stmt 1 view .LVU30
 128              		.loc 1 323 94 is_stmt 0 view .LVU31
 129 004a 1A68     		ldr	r2, [r3]
 130              		.loc 1 323 67 view .LVU32
 131 004c 801A     		subs	r0, r0, r2
 132              		.loc 1 323 36 view .LVU33
 133 004e 9860     		str	r0, [r3, #8]
 324:Core/Src/freertos.c ****       osDelay(30000);
 134              		.loc 1 324 7 is_stmt 1 view .LVU34
 135 0050 47F23050 		movw	r0, #30000
 136 0054 FFF7FEFF 		bl	osDelay
 137              	.LVL9:
 138              	.L2:
 295:Core/Src/freertos.c ****   {
 139              		.loc 1 295 3 view .LVU35
 297:Core/Src/freertos.c ****     {
 140              		.loc 1 297 5 view .LVU36
 297:Core/Src/freertos.c ****     {
 141              		.loc 1 297 9 is_stmt 0 view .LVU37
 142 0058 4FF0FF31 		mov	r1, #-1
 143 005c 204B     		ldr	r3, .L13+28
 144 005e 1868     		ldr	r0, [r3]
 145 0060 FFF7FEFF 		bl	osSemaphoreAcquire
 146              	.LVL10:
 297:Core/Src/freertos.c ****     {
 147              		.loc 1 297 8 view .LVU38
 148 0064 0028     		cmp	r0, #0
 149 0066 F7D1     		bne	.L2
 299:Core/Src/freertos.c ****       if((SIM800.mqttServer.connect == 0) || (SIM800_Status.SIM == 0) || (SIM800_Status.GPRS == 0) 
 150              		.loc 1 299 7 is_stmt 1 view .LVU39
 299:Core/Src/freertos.c ****       if((SIM800.mqttServer.connect == 0) || (SIM800_Status.SIM == 0) || (SIM800_Status.GPRS == 0) 
 151              		.loc 1 299 38 is_stmt 0 view .LVU40
 152 0068 FFF7FEFF 		bl	HAL_GetTick
 153              	.LVL11:
 299:Core/Src/freertos.c ****       if((SIM800.mqttServer.connect == 0) || (SIM800_Status.SIM == 0) || (SIM800_Status.GPRS == 0) 
 154              		.loc 1 299 36 view .LVU41
 155 006c 1B4B     		ldr	r3, .L13+24
 156 006e 1860     		str	r0, [r3]
 300:Core/Src/freertos.c ****       {
 157              		.loc 1 300 7 is_stmt 1 view .LVU42
 300:Core/Src/freertos.c ****       {
 158              		.loc 1 300 28 is_stmt 0 view .LVU43
 159 0070 144B     		ldr	r3, .L13
 160 0072 9B7C     		ldrb	r3, [r3, #18]	@ zero_extendqisi2
 300:Core/Src/freertos.c ****       {
 161              		.loc 1 300 9 view .LVU44
 162 0074 002B     		cmp	r3, #0
 163 0076 E2D0     		beq	.L3
 300:Core/Src/freertos.c ****       {
 164              		.loc 1 300 60 discriminator 1 view .LVU45
 165 0078 1A4B     		ldr	r3, .L13+32
 166 007a 1B78     		ldrb	r3, [r3]	@ zero_extendqisi2
 300:Core/Src/freertos.c ****       {
ARM GAS  C:\Users\Vento\AppData\Local\Temp\ccEg74I3.s 			page 10


 167              		.loc 1 300 43 discriminator 1 view .LVU46
 168 007c 002B     		cmp	r3, #0
 169 007e DED0     		beq	.L3
 300:Core/Src/freertos.c ****       {
 170              		.loc 1 300 88 discriminator 2 view .LVU47
 171 0080 184B     		ldr	r3, .L13+32
 172 0082 5B78     		ldrb	r3, [r3, #1]	@ zero_extendqisi2
 300:Core/Src/freertos.c ****       {
 173              		.loc 1 300 71 discriminator 2 view .LVU48
 174 0084 002B     		cmp	r3, #0
 175 0086 DAD0     		beq	.L3
 300:Core/Src/freertos.c ****       {
 176              		.loc 1 300 117 discriminator 3 view .LVU49
 177 0088 164B     		ldr	r3, .L13+32
 178 008a 9D78     		ldrb	r5, [r3, #2]	@ zero_extendqisi2
 300:Core/Src/freertos.c ****       {
 179              		.loc 1 300 100 discriminator 3 view .LVU50
 180 008c 002D     		cmp	r5, #0
 181 008e D6D0     		beq	.L3
 304:Core/Src/freertos.c ****       {
 182              		.loc 1 304 12 is_stmt 1 view .LVU51
 304:Core/Src/freertos.c ****       {
 183              		.loc 1 304 15 is_stmt 0 view .LVU52
 184 0090 A4B9     		cbnz	r4, .L6
 306:Core/Src/freertos.c ****         if (Node_1.Temperature != 0.0)  {MQTT_PubFloat("MANDevices/Roof_Garden/Node_1_Environment/T
 185              		.loc 1 306 9 is_stmt 1 view .LVU53
 306:Core/Src/freertos.c ****         if (Node_1.Temperature != 0.0)  {MQTT_PubFloat("MANDevices/Roof_Garden/Node_1_Environment/T
 186              		.loc 1 306 31 is_stmt 0 view .LVU54
 187 0092 144B     		ldr	r3, .L13+32
 188 0094 0122     		movs	r2, #1
 189 0096 DA70     		strb	r2, [r3, #3]
 307:Core/Src/freertos.c ****         // if (Node_1.Humidity != 0.0)     {MQTT_PubUint32("MANDevices/Roof_Garden/Node_1_Environme
 190              		.loc 1 307 9 is_stmt 1 view .LVU55
 307:Core/Src/freertos.c ****         // if (Node_1.Humidity != 0.0)     {MQTT_PubUint32("MANDevices/Roof_Garden/Node_1_Environme
 191              		.loc 1 307 19 is_stmt 0 view .LVU56
 192 0098 134B     		ldr	r3, .L13+36
 193 009a 1C68     		ldr	r4, [r3]	@ float
 194              	.LVL12:
 307:Core/Src/freertos.c ****         // if (Node_1.Humidity != 0.0)     {MQTT_PubUint32("MANDevices/Roof_Garden/Node_1_Environme
 195              		.loc 1 307 12 view .LVU57
 196 009c 0021     		movs	r1, #0
 197 009e 2046     		mov	r0, r4
 198 00a0 FFF7FEFF 		bl	__aeabi_fcmpeq
 199              	.LVL13:
 200 00a4 20B1     		cbz	r0, .L12
 201              	.L7:
 314:Core/Src/freertos.c ****         ping = true;
 202              		.loc 1 314 9 is_stmt 1 view .LVU58
 314:Core/Src/freertos.c ****         ping = true;
 203              		.loc 1 314 31 is_stmt 0 view .LVU59
 204 00a6 0F4B     		ldr	r3, .L13+32
 205 00a8 0022     		movs	r2, #0
 206 00aa DA70     		strb	r2, [r3, #3]
 315:Core/Src/freertos.c ****       }
 207              		.loc 1 315 9 is_stmt 1 view .LVU60
 208              	.LVL14:
 315:Core/Src/freertos.c ****       }
ARM GAS  C:\Users\Vento\AppData\Local\Temp\ccEg74I3.s 			page 11


 209              		.loc 1 315 14 is_stmt 0 view .LVU61
 210 00ac 2C46     		mov	r4, r5
 211 00ae C8E7     		b	.L5
 212              	.LVL15:
 213              	.L12:
 307:Core/Src/freertos.c ****         // if (Node_1.Humidity != 0.0)     {MQTT_PubUint32("MANDevices/Roof_Garden/Node_1_Environme
 214              		.loc 1 307 42 is_stmt 1 discriminator 1 view .LVU62
 215 00b0 0222     		movs	r2, #2
 216 00b2 2146     		mov	r1, r4
 217 00b4 0D48     		ldr	r0, .L13+40
 218 00b6 FFF7FEFF 		bl	MQTT_PubFloat
 219              	.LVL16:
 220 00ba F4E7     		b	.L7
 221              	.LVL17:
 222              	.L6:
 317:Core/Src/freertos.c ****       {
 223              		.loc 1 317 12 view .LVU63
 319:Core/Src/freertos.c ****         ping = false;
 224              		.loc 1 319 9 view .LVU64
 225 00bc FFF7FEFF 		bl	MQTT_PingReq
 226              	.LVL18:
 320:Core/Src/freertos.c ****       }
 227              		.loc 1 320 9 view .LVU65
 320:Core/Src/freertos.c ****       }
 228              		.loc 1 320 14 is_stmt 0 view .LVU66
 229 00c0 0024     		movs	r4, #0
 230 00c2 BEE7     		b	.L5
 231              	.L14:
 232              		.align	2
 233              	.L13:
 234 00c4 00000000 		.word	SIM800
 235 00c8 00000000 		.word	.LC0
 236 00cc 0C000000 		.word	.LC1
 237 00d0 10000000 		.word	.LC2
 238 00d4 24000000 		.word	.LC3
 239 00d8 28000000 		.word	.LC4
 240 00dc 00000000 		.word	.LANCHOR1
 241 00e0 00000000 		.word	.LANCHOR0
 242 00e4 00000000 		.word	SIM800_Status
 243 00e8 00000000 		.word	.LANCHOR2
 244 00ec 30000000 		.word	.LC5
 245              		.cfi_endproc
 246              	.LFE70:
 248              		.global	__aeabi_dcmple
 249              		.section	.rodata.Action_Timer.str1.4,"aMS",%progbits,1
 250              		.align	2
 251              	.LC6:
 252 0000 41646170 		.ascii	"Adapter\000"
 252      74657200 
 253              		.global	__aeabi_fcmpge
 254              		.section	.text.Action_Timer,"ax",%progbits
 255              		.align	1
 256              		.global	Action_Timer
 257              		.syntax unified
 258              		.thumb
 259              		.thumb_func
 260              		.fpu softvfp
ARM GAS  C:\Users\Vento\AppData\Local\Temp\ccEg74I3.s 			page 12


 262              	Action_Timer:
 263              	.LVL19:
 264              	.LFB73:
 325:Core/Src/freertos.c ****     }
 326:Core/Src/freertos.c ****   }
 327:Core/Src/freertos.c ****   /* USER CODE END MQTT_Task */
 328:Core/Src/freertos.c **** }
 329:Core/Src/freertos.c **** 
 330:Core/Src/freertos.c **** /* USER CODE BEGIN Header_Display_Task */
 331:Core/Src/freertos.c **** /**
 332:Core/Src/freertos.c ****   * @brief  Function implementing the Display thread.
 333:Core/Src/freertos.c ****   * @param  argument: Not used
 334:Core/Src/freertos.c ****   * @retval None
 335:Core/Src/freertos.c ****   */
 336:Core/Src/freertos.c **** /* USER CODE END Header_Display_Task */
 337:Core/Src/freertos.c **** void Display_Task(void *argument)
 338:Core/Src/freertos.c **** {
 339:Core/Src/freertos.c ****   /* USER CODE BEGIN Display_Task */
 340:Core/Src/freertos.c **** 
 341:Core/Src/freertos.c **** //  ----------------------------------------- Init LCD --------------------------------------------
 342:Core/Src/freertos.c ****   ILI9341_Unselect();
 343:Core/Src/freertos.c ****   ILI9341_TouchUnselect();
 344:Core/Src/freertos.c ****   ILI9341_Init();
 345:Core/Src/freertos.c ****   ILI9341_FillScreen(ILI9341_BLACK);
 346:Core/Src/freertos.c **** //  ---------------------------- Strg to print ---------------------------
 347:Core/Src/freertos.c ****   char StrgTemp[6];
 348:Core/Src/freertos.c ****   char StrgHumd[3];
 349:Core/Src/freertos.c ****   char StrgVolt[6];
 350:Core/Src/freertos.c **** //  ------------------------------------------ Print Layout ---------------------------------------
 351:Core/Src/freertos.c **** 
 352:Core/Src/freertos.c **** //  -------------------------------------------- Header -------------------------------------------
 353:Core/Src/freertos.c ****   ILI9341_WriteString(50, 10, "SIM: ", Font_7x10, ILI9341_WHITE, ILI9341_BLACK);
 354:Core/Src/freertos.c ****   if (SIM800_Status.SIM)  {ILI9341_WriteString(85, 10, "OK", Font_7x10, ILI9341_GREEN, ILI9341_BLAC
 355:Core/Src/freertos.c ****   else  {ILI9341_WriteString(85, 10, "nOK", Font_7x10, ILI9341_RED, ILI9341_BLACK);}
 356:Core/Src/freertos.c **** 
 357:Core/Src/freertos.c ****   ILI9341_WriteString(130, 10, "GPRS: ", Font_7x10, ILI9341_WHITE, ILI9341_BLACK);
 358:Core/Src/freertos.c ****   if (SIM800_Status.GPRS)  {ILI9341_WriteString(172, 10, "OK", Font_7x10, ILI9341_GREEN, ILI9341_BL
 359:Core/Src/freertos.c ****   else  {ILI9341_WriteString(172, 10, "nOK", Font_7x10, ILI9341_RED, ILI9341_BLACK);}
 360:Core/Src/freertos.c **** 
 361:Core/Src/freertos.c ****   ILI9341_WriteString(220, 10, "MQTT: ", Font_7x10, ILI9341_WHITE, ILI9341_BLACK);
 362:Core/Src/freertos.c ****   if (SIM800_Status.MQTT)  {ILI9341_WriteString(262, 10, "OK", Font_7x10, ILI9341_GREEN, ILI9341_BL
 363:Core/Src/freertos.c ****   else  {ILI9341_WriteString(262, 10, "nOK", Font_7x10, ILI9341_RED, ILI9341_BLACK);}
 364:Core/Src/freertos.c **** 
 365:Core/Src/freertos.c ****   ILI9341_DrawLine(160, 27, 160, 100, ILI9341_WHITE);
 366:Core/Src/freertos.c **** 
 367:Core/Src/freertos.c ****   ILI9341_WriteString(50, 30, "NODE 1", Font_11x18, ILI9341_WHITE, ILI9341_BLACK);
 368:Core/Src/freertos.c ****   ILI9341_WriteString(10, 55, "Temp: ", Font_11x18, ILI9341_ORANGE, ILI9341_BLACK);
 369:Core/Src/freertos.c ****   ftoa(Node_1.Temperature, StrgTemp, 2);
 370:Core/Src/freertos.c ****   ILI9341_WriteString(76, 55, StrgTemp, Font_11x18, ILI9341_ORANGE, ILI9341_BLACK);
 371:Core/Src/freertos.c ****   ILI9341_WriteString(132, 55, "o", Font_7x10, ILI9341_ORANGE, ILI9341_BLACK);
 372:Core/Src/freertos.c ****   ILI9341_WriteString(140, 55, "C", Font_11x18, ILI9341_ORANGE, ILI9341_BLACK);
 373:Core/Src/freertos.c ****   ILI9341_WriteString(10, 80, "Humd: ", Font_11x18, ILI9341_LIGHTBLUE, ILI9341_BLACK);
 374:Core/Src/freertos.c ****   intToStr((int)Node_1.Humidity, StrgHumd, 2);
 375:Core/Src/freertos.c ****   ILI9341_WriteString(76, 80, StrgHumd, Font_11x18, ILI9341_LIGHTBLUE, ILI9341_BLACK);
 376:Core/Src/freertos.c ****   ILI9341_WriteString(100, 80, "%", Font_11x18, ILI9341_LIGHTBLUE, ILI9341_BLACK);
 377:Core/Src/freertos.c **** 
 378:Core/Src/freertos.c ****   ILI9341_WriteString(210, 30, "NODE 2", Font_11x18, ILI9341_WHITE, ILI9341_BLACK);
ARM GAS  C:\Users\Vento\AppData\Local\Temp\ccEg74I3.s 			page 13


 379:Core/Src/freertos.c ****   ILI9341_WriteString(170, 55, "Temp: ", Font_11x18, ILI9341_ORANGE, ILI9341_BLACK);
 380:Core/Src/freertos.c ****   ftoa(Node_2.Temperature, StrgTemp, 2);
 381:Core/Src/freertos.c ****   ILI9341_WriteString(236, 55, StrgTemp, Font_11x18, ILI9341_ORANGE, ILI9341_BLACK);
 382:Core/Src/freertos.c ****   ILI9341_WriteString(293, 55, "o", Font_7x10, ILI9341_ORANGE, ILI9341_BLACK);
 383:Core/Src/freertos.c ****   ILI9341_WriteString(300, 55, "C", Font_11x18, ILI9341_ORANGE, ILI9341_BLACK);
 384:Core/Src/freertos.c ****   ILI9341_WriteString(170, 80, "Humd: ", Font_11x18, ILI9341_LIGHTBLUE, ILI9341_BLACK);
 385:Core/Src/freertos.c ****   intToStr((int)Node_2.Humidity, StrgHumd, 2);
 386:Core/Src/freertos.c ****   ILI9341_WriteString(236, 80, StrgHumd, Font_11x18, ILI9341_LIGHTBLUE, ILI9341_BLACK);
 387:Core/Src/freertos.c ****   ILI9341_WriteString(260, 80, "%", Font_11x18, ILI9341_LIGHTBLUE, ILI9341_BLACK);
 388:Core/Src/freertos.c **** 
 389:Core/Src/freertos.c ****   ILI9341_WriteString(44, 110, "Dirt Voltage: ", Font_11x18, ILI9341_BROWN, ILI9341_BLACK);
 390:Core/Src/freertos.c ****   ftoa(DirtHumd, StrgVolt, 3);
 391:Core/Src/freertos.c ****   ILI9341_WriteString(209, 110, StrgVolt, Font_11x18, ILI9341_BROWN, ILI9341_BLACK);
 392:Core/Src/freertos.c ****   ILI9341_WriteString(264, 110, " V", Font_11x18, ILI9341_BROWN, ILI9341_BLACK);
 393:Core/Src/freertos.c **** 
 394:Core/Src/freertos.c ****   ILI9341_WriteString(44, 135, "Lipo Voltage: ", Font_11x18, ILI9341_RED, ILI9341_BLACK);
 395:Core/Src/freertos.c ****   ftoa(LipoBatt.voltage, StrgVolt, 3);
 396:Core/Src/freertos.c ****   ILI9341_WriteString(209, 135, StrgVolt, Font_11x18, ILI9341_RED, ILI9341_BLACK);
 397:Core/Src/freertos.c ****   ILI9341_WriteString(264, 135, " V", Font_11x18, ILI9341_RED, ILI9341_BLACK);
 398:Core/Src/freertos.c **** 
 399:Core/Src/freertos.c ****   ILI9341_WriteString(44, 160, "Solar Voltage: ", Font_11x18, ILI9341_YELLOW, ILI9341_BLACK);
 400:Core/Src/freertos.c ****   ftoa(Solar.voltage, StrgVolt, 3);
 401:Core/Src/freertos.c ****   ILI9341_WriteString(209, 160, StrgVolt, Font_11x18, ILI9341_YELLOW, ILI9341_BLACK);
 402:Core/Src/freertos.c ****   ILI9341_WriteString(264, 160, " V", Font_11x18, ILI9341_YELLOW, ILI9341_BLACK);
 403:Core/Src/freertos.c **** 
 404:Core/Src/freertos.c ****   ILI9341_WriteString(110, 190, "Pump: ", Font_11x18, ILI9341_WHITE, ILI9341_BLACK);
 405:Core/Src/freertos.c ****   if (Button_1.state == true) 
 406:Core/Src/freertos.c ****   {
 407:Core/Src/freertos.c ****     ILI9341_FillRectangle(Button_1.pos_x, Button_1.pos_y, Button_1.shape_w, Button_1.shape_h, ILI93
 408:Core/Src/freertos.c ****     ILI9341_WriteString(180, 190, "ON", Font_11x18, ILI9341_BLACK, ILI9341_GREEN);
 409:Core/Src/freertos.c ****   }
 410:Core/Src/freertos.c ****   else  
 411:Core/Src/freertos.c ****   {
 412:Core/Src/freertos.c ****     ILI9341_FillRectangle(Button_1.pos_x, Button_1.pos_y, Button_1.shape_w, Button_1.shape_h, ILI93
 413:Core/Src/freertos.c ****     ILI9341_WriteString(176, 190, "OFF", Font_11x18, ILI9341_BLACK, ILI9341_RED);
 414:Core/Src/freertos.c ****   }
 415:Core/Src/freertos.c ****   if (Button_2.state == true) 
 416:Core/Src/freertos.c ****   {
 417:Core/Src/freertos.c ****     ILI9341_FillRectangle(Button_2.pos_x, Button_2.pos_y, Button_2.shape_w, Button_2.shape_h, ILI93
 418:Core/Src/freertos.c ****     ILI9341_WriteString(253, 190, "AUTO", Font_11x18, ILI9341_BLACK, ILI9341_GREEN);
 419:Core/Src/freertos.c ****   }
 420:Core/Src/freertos.c ****   else  
 421:Core/Src/freertos.c ****   {
 422:Core/Src/freertos.c ****     ILI9341_FillRectangle(Button_2.pos_x, Button_2.pos_y, Button_2.shape_w, Button_2.shape_h, ILI93
 423:Core/Src/freertos.c ****     ILI9341_WriteString(253, 190, "AUTO", Font_11x18, ILI9341_BLACK, ILI9341_RED);
 424:Core/Src/freertos.c ****   }
 425:Core/Src/freertos.c **** 
 426:Core/Src/freertos.c ****   ILI9341_WriteString(83, 220, "Using: ", Font_11x18, ILI9341_WHITE, ILI9341_BLACK);
 427:Core/Src/freertos.c ****   ILI9341_WriteString(160, 220, "...", Font_11x18, ILI9341_WHITE, ILI9341_BLACK);
 428:Core/Src/freertos.c ****   
 429:Core/Src/freertos.c ****   //---------------------------------------------------- Check State ------------------------------
 430:Core/Src/freertos.c **** 
 431:Core/Src/freertos.c ****   if (HAL_GPIO_ReadPin(GPIOB, GPIO_PIN_4) == 1)   {Adapter.state = true;}
 432:Core/Src/freertos.c ****   else  {Adapter.state = false;}
 433:Core/Src/freertos.c ****   if (HAL_GPIO_ReadPin(GPIOB, GPIO_PIN_12) == 1)  {Batt.state = true;}
 434:Core/Src/freertos.c ****   else  {Batt.state = false;}
 435:Core/Src/freertos.c **** 
ARM GAS  C:\Users\Vento\AppData\Local\Temp\ccEg74I3.s 			page 14


 436:Core/Src/freertos.c ****   if (Adapter.state && Batt.state)        {PowerSate = BOTH;}
 437:Core/Src/freertos.c ****   else if (Adapter.state && !Batt.state)  {PowerSate = ADAPTER;}
 438:Core/Src/freertos.c ****   else if (!Adapter.state && Batt.state)  {PowerSate = BATTERY;}
 439:Core/Src/freertos.c **** 
 440:Core/Src/freertos.c ****   if (PowerSate != BATTERY) {HAL_GPIO_WritePin(GPIO_SIM_GPIO_Port, GPIO_SIM_Pin, 1);}
 441:Core/Src/freertos.c **** 
 442:Core/Src/freertos.c ****   //--------------------------------------------------- Timers Start ------------------------------
 443:Core/Src/freertos.c ****   osTimerStart(Timer01Handle, ActionPeriod);
 444:Core/Src/freertos.c ****   osTimerStart(Timer02Handle, TimeOut);
 445:Core/Src/freertos.c ****   osTimerStart(Timer03Handle, MeasurePeriod);
 446:Core/Src/freertos.c **** 
 447:Core/Src/freertos.c ****   HAL_TIM_Base_Start_IT(&htim2);
 448:Core/Src/freertos.c **** 
 449:Core/Src/freertos.c ****   // /* Infinite loop */
 450:Core/Src/freertos.c ****   for(;;)
 451:Core/Src/freertos.c ****   {
 452:Core/Src/freertos.c ****     osThreadSuspend(LCDHandle);
 453:Core/Src/freertos.c **** 
 454:Core/Src/freertos.c ****     Time_Check.LCD_Display_Time[0] = HAL_GetTick();
 455:Core/Src/freertos.c **** 
 456:Core/Src/freertos.c **** //  -------------------------------------------------- UPDATE -------------------------------------
 457:Core/Src/freertos.c ****     if (SIM800_Status.SIM)  {ILI9341_WriteString(85, 10, "OK ", Font_7x10, ILI9341_GREEN, ILI9341_B
 458:Core/Src/freertos.c ****     else  {ILI9341_WriteString(85, 10, "nOK", Font_7x10, ILI9341_RED, ILI9341_BLACK);}
 459:Core/Src/freertos.c ****     if (SIM800_Status.GPRS)  {ILI9341_WriteString(172, 10, "OK ", Font_7x10, ILI9341_GREEN, ILI9341
 460:Core/Src/freertos.c ****     else  {ILI9341_WriteString(172, 10, "nOK", Font_7x10, ILI9341_RED, ILI9341_BLACK);}
 461:Core/Src/freertos.c ****     if (SIM800_Status.MQTT)  {ILI9341_WriteString(262, 10, "OK ", Font_7x10, ILI9341_GREEN, ILI9341
 462:Core/Src/freertos.c ****     else  {ILI9341_WriteString(262, 10, "nOK", Font_7x10, ILI9341_RED, ILI9341_BLACK);}
 463:Core/Src/freertos.c ****     if (SIM800_Status.SENDING == true)
 464:Core/Src/freertos.c ****     {
 465:Core/Src/freertos.c ****       ILI9341_DrawLine(306, 10, 301, 15, ILI9341_WHITE);
 466:Core/Src/freertos.c ****       ILI9341_DrawLine(306, 10, 311, 15, ILI9341_WHITE);
 467:Core/Src/freertos.c ****       ILI9341_DrawLine(306, 10, 306, 20, ILI9341_WHITE);
 468:Core/Src/freertos.c ****     }
 469:Core/Src/freertos.c ****     else  {ILI9341_WriteString(301, 10, " ", Font_11x18, ILI9341_WHITE, ILI9341_BLACK);}
 470:Core/Src/freertos.c ****     ftoa(Node_1.Temperature, StrgTemp, 2);
 471:Core/Src/freertos.c ****     ILI9341_WriteString(76, 55, StrgTemp, Font_11x18, ILI9341_ORANGE, ILI9341_BLACK);
 472:Core/Src/freertos.c ****     intToStr((int)Node_1.Humidity, StrgHumd, 2);
 473:Core/Src/freertos.c ****     ILI9341_WriteString(76, 80, StrgHumd, Font_11x18, ILI9341_LIGHTBLUE, ILI9341_BLACK);
 474:Core/Src/freertos.c ****     ftoa(Node_2.Temperature, StrgTemp, 2);
 475:Core/Src/freertos.c ****     ILI9341_WriteString(236, 55, StrgTemp, Font_11x18, ILI9341_ORANGE, ILI9341_BLACK);
 476:Core/Src/freertos.c ****     intToStr((int)Node_2.Humidity, StrgHumd, 2);
 477:Core/Src/freertos.c ****     ILI9341_WriteString(236, 80, StrgHumd, Font_11x18, ILI9341_LIGHTBLUE, ILI9341_BLACK);
 478:Core/Src/freertos.c ****     ftoa(DirtHumd, StrgVolt, 3);
 479:Core/Src/freertos.c ****     ILI9341_WriteString(209, 110, StrgVolt, Font_11x18, ILI9341_BROWN, ILI9341_BLACK);
 480:Core/Src/freertos.c ****     ftoa(LipoBatt.voltage, StrgVolt, 3);
 481:Core/Src/freertos.c ****     ILI9341_WriteString(209, 135, StrgVolt, Font_11x18, ILI9341_RED, ILI9341_BLACK);
 482:Core/Src/freertos.c ****     ftoa(Solar.voltage, StrgVolt, 3);
 483:Core/Src/freertos.c ****     ILI9341_WriteString(209, 160, StrgVolt, Font_11x18, ILI9341_YELLOW, ILI9341_BLACK);
 484:Core/Src/freertos.c ****     if (Button_1.state == true) 
 485:Core/Src/freertos.c ****     {
 486:Core/Src/freertos.c ****       ILI9341_FillRectangle(Button_1.pos_x, Button_1.pos_y, Button_1.shape_w, Button_1.shape_h, ILI
 487:Core/Src/freertos.c ****       ILI9341_WriteString(180, 190, "ON", Font_11x18, ILI9341_BLACK, ILI9341_GREEN);
 488:Core/Src/freertos.c ****     }
 489:Core/Src/freertos.c ****     else  
 490:Core/Src/freertos.c ****     {
 491:Core/Src/freertos.c ****       ILI9341_FillRectangle(Button_1.pos_x, Button_1.pos_y, Button_1.shape_w, Button_1.shape_h, ILI
 492:Core/Src/freertos.c ****       ILI9341_WriteString(176, 190, "OFF", Font_11x18, ILI9341_BLACK, ILI9341_RED);
ARM GAS  C:\Users\Vento\AppData\Local\Temp\ccEg74I3.s 			page 15


 493:Core/Src/freertos.c ****     }
 494:Core/Src/freertos.c ****     if (Button_2.state == true) 
 495:Core/Src/freertos.c ****     {
 496:Core/Src/freertos.c ****       ILI9341_FillRectangle(Button_2.pos_x, Button_2.pos_y, Button_2.shape_w, Button_2.shape_h, ILI
 497:Core/Src/freertos.c ****       ILI9341_WriteString(253, 190, "AUTO", Font_11x18, ILI9341_BLACK, ILI9341_GREEN);
 498:Core/Src/freertos.c ****     }
 499:Core/Src/freertos.c ****     else  
 500:Core/Src/freertos.c ****     {
 501:Core/Src/freertos.c ****       ILI9341_FillRectangle(Button_2.pos_x, Button_2.pos_y, Button_2.shape_w, Button_2.shape_h, ILI
 502:Core/Src/freertos.c ****       ILI9341_WriteString(253, 190, "AUTO", Font_11x18, ILI9341_BLACK, ILI9341_RED);
 503:Core/Src/freertos.c ****     }
 504:Core/Src/freertos.c ****     if      (PowerSate == ADAPTER)  {ILI9341_WriteString(160, 220, "Adapter", Font_11x18, ILI9341_G
 505:Core/Src/freertos.c ****     else if (PowerSate == BATTERY)  {ILI9341_WriteString(160, 220, "Battery", Font_11x18, ILI9341_R
 506:Core/Src/freertos.c ****     else if (PowerSate == BOTH)     
 507:Core/Src/freertos.c ****     {
 508:Core/Src/freertos.c ****       if (Adapter.state && Batt.state) {ILI9341_WriteString(160, 220, "Both   ", Font_11x18, ILI934
 509:Core/Src/freertos.c ****       else if (!Adapter.state && Batt.state) {ILI9341_WriteString(160, 220, "Battery", Font_11x18, 
 510:Core/Src/freertos.c ****       else if (Adapter.state && !Batt.state) {ILI9341_WriteString(160, 220, "Adapter", Font_11x18, 
 511:Core/Src/freertos.c ****     }
 512:Core/Src/freertos.c ****     if (Adapter.state && Batt.state)  {ILI9341_WriteString(250, 220, ">>>", Font_11x18, ILI9341_BLA
 513:Core/Src/freertos.c ****     else  {ILI9341_WriteString(250, 220, "   ", Font_11x18, ILI9341_WHITE, ILI9341_BLACK);}
 514:Core/Src/freertos.c ****     
 515:Core/Src/freertos.c ****     Time_Check.LCD_Display_Time[1] = HAL_GetTick();
 516:Core/Src/freertos.c ****     Time_Check.LCD_Display_Time[2] = Time_Check.LCD_Display_Time[1] - Time_Check.LCD_Display_Time[0
 517:Core/Src/freertos.c ****   }
 518:Core/Src/freertos.c ****   /* USER CODE END Display_Task */
 519:Core/Src/freertos.c **** }
 520:Core/Src/freertos.c **** 
 521:Core/Src/freertos.c **** /* USER CODE BEGIN Header_IRQ_Task */
 522:Core/Src/freertos.c **** /**
 523:Core/Src/freertos.c **** * @brief Function implementing the IRQ thread.
 524:Core/Src/freertos.c **** * @param argument: Not used
 525:Core/Src/freertos.c **** * @retval None
 526:Core/Src/freertos.c **** */
 527:Core/Src/freertos.c **** /* USER CODE END Header_IRQ_Task */
 528:Core/Src/freertos.c **** void IRQ_Task(void *argument)
 529:Core/Src/freertos.c **** {
 530:Core/Src/freertos.c ****   /* USER CODE BEGIN IRQ_Task */
 531:Core/Src/freertos.c ****   uint16_t x, y;
 532:Core/Src/freertos.c ****   uint32_t currentTick = 0, lastTick = 0;
 533:Core/Src/freertos.c **** 
 534:Core/Src/freertos.c ****   /* Infinite loop */
 535:Core/Src/freertos.c ****   for(;;)
 536:Core/Src/freertos.c ****   {
 537:Core/Src/freertos.c ****     osDelay(100);
 538:Core/Src/freertos.c **** //  ----------------------------------- Wait for event --------------------------------------------
 539:Core/Src/freertos.c ****     if (osSemaphoreAcquire(BinarySem01Handle, portMAX_DELAY) == osOK)
 540:Core/Src/freertos.c ****     {
 541:Core/Src/freertos.c ****       Time_Check.IRQ_Time[0] = HAL_GetTick();
 542:Core/Src/freertos.c ****       osDelay(100);
 543:Core/Src/freertos.c **** //  ---------------------------------------- Check for debounce -----------------------------------
 544:Core/Src/freertos.c ****       currentTick = HAL_GetTick();
 545:Core/Src/freertos.c ****       if (HAL_GPIO_ReadPin(T_IRQ_GPIO_Port, T_IRQ_Pin) == 0 && ((currentTick - lastTick) >= 500))
 546:Core/Src/freertos.c ****       {
 547:Core/Src/freertos.c ****         lastTick = currentTick;
 548:Core/Src/freertos.c **** //  -------------------------------------- Get touch coordinates ----------------------------------
 549:Core/Src/freertos.c ****         HAL_SPI_DeInit(&hspi2);
ARM GAS  C:\Users\Vento\AppData\Local\Temp\ccEg74I3.s 			page 16


 550:Core/Src/freertos.c ****         hspi2.Init.BaudRatePrescaler = SPI_BAUDRATEPRESCALER_128;
 551:Core/Src/freertos.c ****         HAL_SPI_Init(&hspi2);
 552:Core/Src/freertos.c ****         while(ILI9341_TouchGetCoordinates(&x, &y) != true);
 553:Core/Src/freertos.c ****         HAL_SPI_DeInit(&hspi2);
 554:Core/Src/freertos.c ****         hspi2.Init.BaudRatePrescaler = SPI_BAUDRATEPRESCALER_2;
 555:Core/Src/freertos.c ****         HAL_SPI_Init(&hspi2);
 556:Core/Src/freertos.c **** //  ------------------------------------------ Reset TimeOut Timer --------------------------------
 557:Core/Src/freertos.c ****         osTimerStop(Timer02Handle);
 558:Core/Src/freertos.c ****         xTimerReset(Timer02Handle, 100);
 559:Core/Src/freertos.c **** //  --------------------------------------- Handle touch ------------------------------------------
 560:Core/Src/freertos.c ****         if (DeviceState == SLEEPING)
 561:Core/Src/freertos.c ****         {
 562:Core/Src/freertos.c ****           //  ------------------------------ Turn ON LCD ------------------------------------------
 563:Core/Src/freertos.c ****           DeviceState = RUNNING;
 564:Core/Src/freertos.c ****           HAL_GPIO_WritePin(LCD_LED_GPIO_Port, LCD_LED_Pin, 1);
 565:Core/Src/freertos.c ****           osThreadResume(LCDHandle);
 566:Core/Src/freertos.c ****         }
 567:Core/Src/freertos.c ****         else
 568:Core/Src/freertos.c ****         {
 569:Core/Src/freertos.c ****           if ((x >= Button_1.pos_y) && 
 570:Core/Src/freertos.c ****               (x <= (Button_1.pos_y + Button_1.shape_h)) && 
 571:Core/Src/freertos.c ****               (y >= Button_1.pos_x) && 
 572:Core/Src/freertos.c ****               (y <= (Button_1.pos_x + Button_1.shape_w)) &&
 573:Core/Src/freertos.c ****               (PowerSate != BATTERY))
 574:Core/Src/freertos.c ****           {
 575:Core/Src/freertos.c ****             if (Button_1.state == false)
 576:Core/Src/freertos.c ****             {
 577:Core/Src/freertos.c ****               Button_1.state = true;
 578:Core/Src/freertos.c ****               HAL_GPIO_WritePin(Pump.GPIO_Port, Pump.Pin, 1);
 579:Core/Src/freertos.c ****               ILI9341_FillRectangle(175, 185, 35, 26, ILI9341_GREEN);
 580:Core/Src/freertos.c ****               ILI9341_WriteString(180, 190, "ON", Font_11x18, ILI9341_BLACK, ILI9341_GREEN);
 581:Core/Src/freertos.c ****             }
 582:Core/Src/freertos.c ****             else
 583:Core/Src/freertos.c ****             {
 584:Core/Src/freertos.c ****               Button_1.state = false;
 585:Core/Src/freertos.c ****               HAL_GPIO_WritePin(Pump.GPIO_Port, Pump.Pin, 0);
 586:Core/Src/freertos.c ****               ILI9341_FillRectangle(175, 185, 35, 26, ILI9341_RED);
 587:Core/Src/freertos.c ****               ILI9341_WriteString(176, 190, "OFF", Font_11x18, ILI9341_BLACK, ILI9341_RED);
 588:Core/Src/freertos.c ****             }
 589:Core/Src/freertos.c ****           }
 590:Core/Src/freertos.c **** 
 591:Core/Src/freertos.c ****           if ((x >= Button_2.pos_y) && 
 592:Core/Src/freertos.c ****               (x <= (Button_2.pos_y + Button_2.shape_h)) && 
 593:Core/Src/freertos.c ****               (y >= Button_2.pos_x) && 
 594:Core/Src/freertos.c ****               (y <= (Button_2.pos_x + Button_2.shape_w)) &&
 595:Core/Src/freertos.c ****               (PowerSate != BATTERY))
 596:Core/Src/freertos.c ****           {
 597:Core/Src/freertos.c ****             if (Button_2.state == false)
 598:Core/Src/freertos.c ****             {
 599:Core/Src/freertos.c ****               Button_2.state = true;
 600:Core/Src/freertos.c ****               ILI9341_FillRectangle(Button_2.pos_x, Button_2.pos_y, Button_2.shape_w, Button_2.shap
 601:Core/Src/freertos.c ****               ILI9341_WriteString(253, 190, "AUTO", Font_11x18, ILI9341_BLACK, ILI9341_GREEN);
 602:Core/Src/freertos.c ****             }
 603:Core/Src/freertos.c ****             else
 604:Core/Src/freertos.c ****             {
 605:Core/Src/freertos.c ****               Button_2.state = false;
 606:Core/Src/freertos.c ****               ILI9341_FillRectangle(Button_2.pos_x, Button_2.pos_y, Button_2.shape_w, Button_2.shap
ARM GAS  C:\Users\Vento\AppData\Local\Temp\ccEg74I3.s 			page 17


 607:Core/Src/freertos.c ****               ILI9341_WriteString(253, 190, "AUTO", Font_11x18, ILI9341_BLACK, ILI9341_RED);
 608:Core/Src/freertos.c ****             }
 609:Core/Src/freertos.c ****           }
 610:Core/Src/freertos.c **** 
 611:Core/Src/freertos.c ****           if (Adapter.state && Batt.state && (x >= 220) && (x <= 239) && (y >= 250) && (y <= 283))
 612:Core/Src/freertos.c ****           {
 613:Core/Src/freertos.c ****             if (PowerSate == ADAPTER)
 614:Core/Src/freertos.c ****             {
 615:Core/Src/freertos.c ****               ILI9341_WriteString(160, 220, "Both   ", Font_11x18, ILI9341_WHITE, ILI9341_BLACK);
 616:Core/Src/freertos.c ****               HAL_GPIO_WritePin(GPIO_SIM_GPIO_Port, GPIO_SIM_Pin, 1);
 617:Core/Src/freertos.c ****               HAL_GPIO_WritePin(GPIO_SOLAR_GPIO_Port, GPIO_SOLAR_Pin, 0);
 618:Core/Src/freertos.c ****               HAL_GPIO_WritePin(GPIO_ADAPTER_GPIO_Port, GPIO_ADAPTER_Pin, 0);
 619:Core/Src/freertos.c ****               PowerSate = BOTH;
 620:Core/Src/freertos.c ****             }
 621:Core/Src/freertos.c ****             else if (PowerSate == BATTERY)
 622:Core/Src/freertos.c ****             {
 623:Core/Src/freertos.c ****               if (Button_2.state == true)
 624:Core/Src/freertos.c ****               {
 625:Core/Src/freertos.c ****                 Button_2.state = false;
 626:Core/Src/freertos.c ****                 ILI9341_FillRectangle(Button_2.pos_x, Button_2.pos_y, Button_2.shape_w, Button_2.sh
 627:Core/Src/freertos.c ****                 ILI9341_WriteString(253, 190, "AUTO", Font_11x18, ILI9341_BLACK, ILI9341_RED);
 628:Core/Src/freertos.c ****               }
 629:Core/Src/freertos.c ****               if (Button_1.state == true)
 630:Core/Src/freertos.c ****               {
 631:Core/Src/freertos.c ****                 Button_1.state = false;
 632:Core/Src/freertos.c ****                 HAL_GPIO_WritePin(Pump.GPIO_Port, Pump.Pin, 0);
 633:Core/Src/freertos.c ****                 ILI9341_FillRectangle(175, 185, 35, 26, ILI9341_RED);
 634:Core/Src/freertos.c ****                 ILI9341_WriteString(176, 190, "OFF", Font_11x18, ILI9341_BLACK, ILI9341_RED);
 635:Core/Src/freertos.c ****               }
 636:Core/Src/freertos.c ****               ILI9341_WriteString(160, 220, "Adapter", Font_11x18, ILI9341_GREEN, ILI9341_BLACK);
 637:Core/Src/freertos.c ****               HAL_GPIO_WritePin(GPIO_SIM_GPIO_Port, GPIO_SIM_Pin, 1);
 638:Core/Src/freertos.c ****               osDelay(100);
 639:Core/Src/freertos.c ****               HAL_GPIO_WritePin(GPIO_ADAPTER_GPIO_Port, GPIO_ADAPTER_Pin, 0);
 640:Core/Src/freertos.c ****               osDelay(100);
 641:Core/Src/freertos.c ****               HAL_GPIO_WritePin(GPIO_SOLAR_GPIO_Port, GPIO_SOLAR_Pin, 1);
 642:Core/Src/freertos.c ****               PowerSate = ADAPTER;
 643:Core/Src/freertos.c ****             }
 644:Core/Src/freertos.c ****             else if (PowerSate == BOTH)
 645:Core/Src/freertos.c ****             {
 646:Core/Src/freertos.c ****               ILI9341_WriteString(160, 220, "Battery", Font_11x18, ILI9341_RED, ILI9341_BLACK);
 647:Core/Src/freertos.c ****               HAL_GPIO_WritePin(GPIO_ADAPTER_GPIO_Port, GPIO_ADAPTER_Pin, 1);
 648:Core/Src/freertos.c ****               osDelay(100);
 649:Core/Src/freertos.c ****               HAL_GPIO_WritePin(GPIO_SIM_GPIO_Port, GPIO_SIM_Pin, 0);
 650:Core/Src/freertos.c ****               if (Button_2.state == true)
 651:Core/Src/freertos.c ****               {
 652:Core/Src/freertos.c ****                 Button_2.state = false;
 653:Core/Src/freertos.c ****                 ILI9341_FillRectangle(Button_2.pos_x, Button_2.pos_y, Button_2.shape_w, Button_2.sh
 654:Core/Src/freertos.c ****                 ILI9341_WriteString(253, 190, "AUTO", Font_11x18, ILI9341_BLACK, ILI9341_RED);
 655:Core/Src/freertos.c ****               }
 656:Core/Src/freertos.c ****               PowerSate = BATTERY;
 657:Core/Src/freertos.c ****             }
 658:Core/Src/freertos.c ****           }
 659:Core/Src/freertos.c ****         }
 660:Core/Src/freertos.c **** //  ----------------------------------------- Start TimeOut Timer again ---------------------------
 661:Core/Src/freertos.c ****         osTimerStart(Timer02Handle, TimeOut);
 662:Core/Src/freertos.c ****         Time_Check.IRQ_Time[1] = HAL_GetTick();
 663:Core/Src/freertos.c ****         Time_Check.IRQ_Time[2] = Time_Check.IRQ_Time[1] - Time_Check.IRQ_Time[0];
ARM GAS  C:\Users\Vento\AppData\Local\Temp\ccEg74I3.s 			page 18


 664:Core/Src/freertos.c ****       }
 665:Core/Src/freertos.c ****     }
 666:Core/Src/freertos.c ****   }
 667:Core/Src/freertos.c ****   /* USER CODE END IRQ_Task */
 668:Core/Src/freertos.c **** }
 669:Core/Src/freertos.c **** 
 670:Core/Src/freertos.c **** /* Action_Timer function */
 671:Core/Src/freertos.c **** void Action_Timer(void *argument)
 672:Core/Src/freertos.c **** {
 265              		.loc 1 672 1 is_stmt 1 view -0
 266              		.cfi_startproc
 267              		@ args = 0, pretend = 0, frame = 0
 268              		@ frame_needed = 0, uses_anonymous_args = 0
 269              		.loc 1 672 1 is_stmt 0 view .LVU68
 270 0000 30B5     		push	{r4, r5, lr}
 271              	.LCFI1:
 272              		.cfi_def_cfa_offset 12
 273              		.cfi_offset 4, -12
 274              		.cfi_offset 5, -8
 275              		.cfi_offset 14, -4
 276 0002 85B0     		sub	sp, sp, #20
 277              	.LCFI2:
 278              		.cfi_def_cfa_offset 32
 673:Core/Src/freertos.c ****   /* USER CODE BEGIN Action_Timer */
 674:Core/Src/freertos.c **** 
 675:Core/Src/freertos.c **** //  ---------------------------------------- Automatic power mode switching -----------------------
 676:Core/Src/freertos.c ****   if((PowerSate == BATTERY) && (LipoBatt.voltage <= 3.8) && (Adapter.state == true))
 279              		.loc 1 676 3 is_stmt 1 view .LVU69
 280              		.loc 1 676 17 is_stmt 0 view .LVU70
 281 0004 2E4B     		ldr	r3, .L25+8
 282 0006 1B78     		ldrb	r3, [r3]	@ zero_extendqisi2
 283              		.loc 1 676 5 view .LVU71
 284 0008 012B     		cmp	r3, #1
 285 000a 0BD0     		beq	.L23
 286              	.LVL20:
 287              	.L16:
 677:Core/Src/freertos.c ****   {
 678:Core/Src/freertos.c ****     ILI9341_WriteString(160, 220, "Adapter", Font_11x18, ILI9341_GREEN, ILI9341_BLACK);
 679:Core/Src/freertos.c ****     HAL_GPIO_WritePin(GPIO_SIM_GPIO_Port, GPIO_SIM_Pin, 1);
 680:Core/Src/freertos.c ****     osDelay(100);
 681:Core/Src/freertos.c ****     HAL_GPIO_WritePin(GPIO_ADAPTER_GPIO_Port, GPIO_ADAPTER_Pin, 0);
 682:Core/Src/freertos.c ****     osDelay(100);
 683:Core/Src/freertos.c ****     HAL_GPIO_WritePin(GPIO_SOLAR_GPIO_Port, GPIO_SOLAR_Pin, 1);
 684:Core/Src/freertos.c ****     PowerSate = ADAPTER;
 685:Core/Src/freertos.c ****   }
 686:Core/Src/freertos.c **** //  -------------------------------------------- Automatic pump -----------------------------------
 687:Core/Src/freertos.c ****   if ((Button_2.state == true) && (DirtHumd >= 2.5))
 288              		.loc 1 687 3 is_stmt 1 view .LVU72
 289              		.loc 1 687 16 is_stmt 0 view .LVU73
 290 000c 2D4B     		ldr	r3, .L25+12
 291 000e 1B7B     		ldrb	r3, [r3, #12]	@ zero_extendqisi2
 292              		.loc 1 687 6 view .LVU74
 293 0010 33B1     		cbz	r3, .L15
 294              		.loc 1 687 32 discriminator 1 view .LVU75
 295 0012 2D49     		ldr	r1, .L25+16
 296 0014 2D4B     		ldr	r3, .L25+20
 297 0016 1868     		ldr	r0, [r3]	@ float
ARM GAS  C:\Users\Vento\AppData\Local\Temp\ccEg74I3.s 			page 19


 298 0018 FFF7FEFF 		bl	__aeabi_fcmpge
 299              	.LVL21:
 300 001c 0028     		cmp	r0, #0
 301 001e 38D1     		bne	.L24
 302              	.L15:
 688:Core/Src/freertos.c ****   {
 689:Core/Src/freertos.c ****     HAL_GPIO_WritePin(GPIO_PUMP_GPIO_Port, GPIO_PUMP_Pin, 1);
 690:Core/Src/freertos.c ****     osDelay(2000);
 691:Core/Src/freertos.c ****     HAL_GPIO_WritePin(GPIO_PUMP_GPIO_Port, GPIO_PUMP_Pin, 0);
 692:Core/Src/freertos.c ****   }
 693:Core/Src/freertos.c ****   /* USER CODE END Action_Timer */
 694:Core/Src/freertos.c **** }
 303              		.loc 1 694 1 view .LVU76
 304 0020 05B0     		add	sp, sp, #20
 305              	.LCFI3:
 306              		.cfi_remember_state
 307              		.cfi_def_cfa_offset 12
 308              		@ sp needed
 309 0022 30BD     		pop	{r4, r5, pc}
 310              	.LVL22:
 311              	.L23:
 312              	.LCFI4:
 313              		.cfi_restore_state
 676:Core/Src/freertos.c ****   {
 314              		.loc 1 676 29 discriminator 1 view .LVU77
 315 0024 24A3     		adr	r3, .L25
 316 0026 D3E90023 		ldrd	r2, [r3]
 317 002a 2949     		ldr	r1, .L25+24
 318 002c D1E90001 		ldrd	r0, [r1]
 319              	.LVL23:
 676:Core/Src/freertos.c ****   {
 320              		.loc 1 676 29 discriminator 1 view .LVU78
 321 0030 FFF7FEFF 		bl	__aeabi_dcmple
 322              	.LVL24:
 323 0034 0028     		cmp	r0, #0
 324 0036 E9D0     		beq	.L16
 676:Core/Src/freertos.c ****   {
 325              		.loc 1 676 69 discriminator 2 view .LVU79
 326 0038 264B     		ldr	r3, .L25+28
 327 003a 1B78     		ldrb	r3, [r3]	@ zero_extendqisi2
 676:Core/Src/freertos.c ****   {
 328              		.loc 1 676 58 discriminator 2 view .LVU80
 329 003c 002B     		cmp	r3, #0
 330 003e E5D0     		beq	.L16
 678:Core/Src/freertos.c ****     HAL_GPIO_WritePin(GPIO_SIM_GPIO_Port, GPIO_SIM_Pin, 1);
 331              		.loc 1 678 5 is_stmt 1 view .LVU81
 332 0040 254B     		ldr	r3, .L25+32
 333 0042 0024     		movs	r4, #0
 334 0044 0294     		str	r4, [sp, #8]
 335 0046 4FF4FC62 		mov	r2, #2016
 336 004a 0192     		str	r2, [sp, #4]
 337 004c 5A68     		ldr	r2, [r3, #4]
 338 004e 0092     		str	r2, [sp]
 339 0050 1B68     		ldr	r3, [r3]
 340 0052 224A     		ldr	r2, .L25+36
 341 0054 DC21     		movs	r1, #220
 342 0056 A020     		movs	r0, #160
ARM GAS  C:\Users\Vento\AppData\Local\Temp\ccEg74I3.s 			page 20


 343 0058 FFF7FEFF 		bl	ILI9341_WriteString
 344              	.LVL25:
 679:Core/Src/freertos.c ****     osDelay(100);
 345              		.loc 1 679 5 view .LVU82
 346 005c 204D     		ldr	r5, .L25+40
 347 005e 0122     		movs	r2, #1
 348 0060 2021     		movs	r1, #32
 349 0062 2846     		mov	r0, r5
 350 0064 FFF7FEFF 		bl	HAL_GPIO_WritePin
 351              	.LVL26:
 680:Core/Src/freertos.c ****     HAL_GPIO_WritePin(GPIO_ADAPTER_GPIO_Port, GPIO_ADAPTER_Pin, 0);
 352              		.loc 1 680 5 view .LVU83
 353 0068 6420     		movs	r0, #100
 354 006a FFF7FEFF 		bl	osDelay
 355              	.LVL27:
 681:Core/Src/freertos.c ****     osDelay(100);
 356              		.loc 1 681 5 view .LVU84
 357 006e 2246     		mov	r2, r4
 358 0070 4FF48071 		mov	r1, #256
 359 0074 2846     		mov	r0, r5
 360 0076 FFF7FEFF 		bl	HAL_GPIO_WritePin
 361              	.LVL28:
 682:Core/Src/freertos.c ****     HAL_GPIO_WritePin(GPIO_SOLAR_GPIO_Port, GPIO_SOLAR_Pin, 1);
 362              		.loc 1 682 5 view .LVU85
 363 007a 6420     		movs	r0, #100
 364 007c FFF7FEFF 		bl	osDelay
 365              	.LVL29:
 683:Core/Src/freertos.c ****     PowerSate = ADAPTER;
 366              		.loc 1 683 5 view .LVU86
 367 0080 0122     		movs	r2, #1
 368 0082 4FF40071 		mov	r1, #512
 369 0086 2846     		mov	r0, r5
 370 0088 FFF7FEFF 		bl	HAL_GPIO_WritePin
 371              	.LVL30:
 684:Core/Src/freertos.c ****   }
 372              		.loc 1 684 5 view .LVU87
 684:Core/Src/freertos.c ****   }
 373              		.loc 1 684 15 is_stmt 0 view .LVU88
 374 008c 0C4B     		ldr	r3, .L25+8
 375 008e 1C70     		strb	r4, [r3]
 376 0090 BCE7     		b	.L16
 377              	.L24:
 689:Core/Src/freertos.c ****     osDelay(2000);
 378              		.loc 1 689 5 is_stmt 1 view .LVU89
 379 0092 144C     		ldr	r4, .L25+44
 380 0094 0122     		movs	r2, #1
 381 0096 4FF40041 		mov	r1, #32768
 382 009a 2046     		mov	r0, r4
 383 009c FFF7FEFF 		bl	HAL_GPIO_WritePin
 384              	.LVL31:
 690:Core/Src/freertos.c ****     HAL_GPIO_WritePin(GPIO_PUMP_GPIO_Port, GPIO_PUMP_Pin, 0);
 385              		.loc 1 690 5 view .LVU90
 386 00a0 4FF4FA60 		mov	r0, #2000
 387 00a4 FFF7FEFF 		bl	osDelay
 388              	.LVL32:
 691:Core/Src/freertos.c ****   }
 389              		.loc 1 691 5 view .LVU91
ARM GAS  C:\Users\Vento\AppData\Local\Temp\ccEg74I3.s 			page 21


 390 00a8 0022     		movs	r2, #0
 391 00aa 4FF40041 		mov	r1, #32768
 392 00ae 2046     		mov	r0, r4
 393 00b0 FFF7FEFF 		bl	HAL_GPIO_WritePin
 394              	.LVL33:
 395              		.loc 1 694 1 is_stmt 0 view .LVU92
 396 00b4 B4E7     		b	.L15
 397              	.L26:
 398 00b6 00BF     		.align	3
 399              	.L25:
 400 00b8 66666666 		.word	1717986918
 401 00bc 66660E40 		.word	1074685542
 402 00c0 00000000 		.word	.LANCHOR3
 403 00c4 00000000 		.word	.LANCHOR6
 404 00c8 00002040 		.word	1075838976
 405 00cc 00000000 		.word	.LANCHOR7
 406 00d0 00000000 		.word	.LANCHOR4
 407 00d4 00000000 		.word	.LANCHOR5
 408 00d8 00000000 		.word	Font_11x18
 409 00dc 00000000 		.word	.LC6
 410 00e0 000C0140 		.word	1073810432
 411 00e4 00100140 		.word	1073811456
 412              		.cfi_endproc
 413              	.LFE73:
 415              		.section	.rodata.Display_Task.str1.4,"aMS",%progbits,1
 416              		.align	2
 417              	.LC7:
 418 0000 53494D3A 		.ascii	"SIM: \000"
 418      2000
 419 0006 0000     		.align	2
 420              	.LC8:
 421 0008 4F4B00   		.ascii	"OK\000"
 422 000b 00       		.align	2
 423              	.LC9:
 424 000c 6E4F4B00 		.ascii	"nOK\000"
 425              		.align	2
 426              	.LC10:
 427 0010 47505253 		.ascii	"GPRS: \000"
 427      3A2000
 428 0017 00       		.align	2
 429              	.LC11:
 430 0018 4D515454 		.ascii	"MQTT: \000"
 430      3A2000
 431 001f 00       		.align	2
 432              	.LC12:
 433 0020 4E4F4445 		.ascii	"NODE 1\000"
 433      203100
 434 0027 00       		.align	2
 435              	.LC13:
 436 0028 54656D70 		.ascii	"Temp: \000"
 436      3A2000
 437 002f 00       		.align	2
 438              	.LC14:
 439 0030 6F00     		.ascii	"o\000"
 440 0032 0000     		.align	2
 441              	.LC15:
 442 0034 4300     		.ascii	"C\000"
ARM GAS  C:\Users\Vento\AppData\Local\Temp\ccEg74I3.s 			page 22


 443 0036 0000     		.align	2
 444              	.LC16:
 445 0038 48756D64 		.ascii	"Humd: \000"
 445      3A2000
 446              		.global	__aeabi_f2iz
 447 003f 00       		.align	2
 448              	.LC17:
 449 0040 2500     		.ascii	"%\000"
 450 0042 0000     		.align	2
 451              	.LC18:
 452 0044 4E4F4445 		.ascii	"NODE 2\000"
 452      203200
 453 004b 00       		.align	2
 454              	.LC19:
 455 004c 44697274 		.ascii	"Dirt Voltage: \000"
 455      20566F6C 
 455      74616765 
 455      3A2000
 456 005b 00       		.align	2
 457              	.LC20:
 458 005c 205600   		.ascii	" V\000"
 459 005f 00       		.align	2
 460              	.LC21:
 461 0060 4C69706F 		.ascii	"Lipo Voltage: \000"
 461      20566F6C 
 461      74616765 
 461      3A2000
 462              		.global	__aeabi_d2f
 463 006f 00       		.align	2
 464              	.LC22:
 465 0070 536F6C61 		.ascii	"Solar Voltage: \000"
 465      7220566F 
 465      6C746167 
 465      653A2000 
 466              		.align	2
 467              	.LC23:
 468 0080 50756D70 		.ascii	"Pump: \000"
 468      3A2000
 469 0087 00       		.align	2
 470              	.LC24:
 471 0088 4F4E00   		.ascii	"ON\000"
 472 008b 00       		.align	2
 473              	.LC25:
 474 008c 4F464600 		.ascii	"OFF\000"
 475              		.align	2
 476              	.LC26:
 477 0090 4155544F 		.ascii	"AUTO\000"
 477      00
 478 0095 000000   		.align	2
 479              	.LC27:
 480 0098 5573696E 		.ascii	"Using: \000"
 480      673A2000 
 481              		.align	2
 482              	.LC28:
 483 00a0 2E2E2E00 		.ascii	"...\000"
 484              		.align	2
 485              	.LC29:
ARM GAS  C:\Users\Vento\AppData\Local\Temp\ccEg74I3.s 			page 23


 486 00a4 4F4B2000 		.ascii	"OK \000"
 487              		.align	2
 488              	.LC30:
 489 00a8 2000     		.ascii	" \000"
 490 00aa 0000     		.align	2
 491              	.LC31:
 492 00ac 42617474 		.ascii	"Battery\000"
 492      65727900 
 493              		.align	2
 494              	.LC32:
 495 00b4 426F7468 		.ascii	"Both   \000"
 495      20202000 
 496              		.align	2
 497              	.LC33:
 498 00bc 3E3E3E00 		.ascii	">>>\000"
 499              		.align	2
 500              	.LC34:
 501 00c0 20202000 		.ascii	"   \000"
 502              		.section	.text.Display_Task,"ax",%progbits
 503              		.align	1
 504              		.global	Display_Task
 505              		.syntax unified
 506              		.thumb
 507              		.thumb_func
 508              		.fpu softvfp
 510              	Display_Task:
 511              	.LVL34:
 512              	.LFB71:
 338:Core/Src/freertos.c ****   /* USER CODE BEGIN Display_Task */
 513              		.loc 1 338 1 is_stmt 1 view -0
 514              		.cfi_startproc
 515              		@ Volatile: function does not return.
 516              		@ args = 0, pretend = 0, frame = 24
 517              		@ frame_needed = 0, uses_anonymous_args = 0
 338:Core/Src/freertos.c ****   /* USER CODE BEGIN Display_Task */
 518              		.loc 1 338 1 is_stmt 0 view .LVU94
 519 0000 2DE98048 		push	{r7, fp, lr}
 520              	.LCFI5:
 521              		.cfi_def_cfa_offset 12
 522              		.cfi_offset 7, -12
 523              		.cfi_offset 11, -8
 524              		.cfi_offset 14, -4
 525 0004 8BB0     		sub	sp, sp, #44
 526              	.LCFI6:
 527              		.cfi_def_cfa_offset 56
 342:Core/Src/freertos.c ****   ILI9341_TouchUnselect();
 528              		.loc 1 342 3 is_stmt 1 view .LVU95
 529 0006 FFF7FEFF 		bl	ILI9341_Unselect
 530              	.LVL35:
 343:Core/Src/freertos.c ****   ILI9341_Init();
 531              		.loc 1 343 3 view .LVU96
 532 000a FFF7FEFF 		bl	ILI9341_TouchUnselect
 533              	.LVL36:
 344:Core/Src/freertos.c ****   ILI9341_FillScreen(ILI9341_BLACK);
 534              		.loc 1 344 3 view .LVU97
 535 000e FFF7FEFF 		bl	ILI9341_Init
 536              	.LVL37:
ARM GAS  C:\Users\Vento\AppData\Local\Temp\ccEg74I3.s 			page 24


 345:Core/Src/freertos.c **** //  ---------------------------- Strg to print ---------------------------
 537              		.loc 1 345 3 view .LVU98
 538 0012 0020     		movs	r0, #0
 539 0014 FFF7FEFF 		bl	ILI9341_FillScreen
 540              	.LVL38:
 347:Core/Src/freertos.c ****   char StrgHumd[3];
 541              		.loc 1 347 3 view .LVU99
 348:Core/Src/freertos.c ****   char StrgVolt[6];
 542              		.loc 1 348 3 view .LVU100
 349:Core/Src/freertos.c **** //  ------------------------------------------ Print Layout ---------------------------------------
 543              		.loc 1 349 3 view .LVU101
 353:Core/Src/freertos.c ****   if (SIM800_Status.SIM)  {ILI9341_WriteString(85, 10, "OK", Font_7x10, ILI9341_GREEN, ILI9341_BLAC
 544              		.loc 1 353 3 view .LVU102
 545 0018 AF4B     		ldr	r3, .L75
 546 001a 0022     		movs	r2, #0
 547 001c 0292     		str	r2, [sp, #8]
 548 001e 4FF6FF72 		movw	r2, #65535
 549 0022 0192     		str	r2, [sp, #4]
 550 0024 5A68     		ldr	r2, [r3, #4]
 551 0026 0092     		str	r2, [sp]
 552 0028 1B68     		ldr	r3, [r3]
 553 002a AC4A     		ldr	r2, .L75+4
 554 002c 0A21     		movs	r1, #10
 555 002e 3220     		movs	r0, #50
 556 0030 FFF7FEFF 		bl	ILI9341_WriteString
 557              	.LVL39:
 354:Core/Src/freertos.c ****   else  {ILI9341_WriteString(85, 10, "nOK", Font_7x10, ILI9341_RED, ILI9341_BLACK);}
 558              		.loc 1 354 3 view .LVU103
 354:Core/Src/freertos.c ****   else  {ILI9341_WriteString(85, 10, "nOK", Font_7x10, ILI9341_RED, ILI9341_BLACK);}
 559              		.loc 1 354 20 is_stmt 0 view .LVU104
 560 0034 AA4B     		ldr	r3, .L75+8
 561 0036 1B78     		ldrb	r3, [r3]	@ zero_extendqisi2
 354:Core/Src/freertos.c ****   else  {ILI9341_WriteString(85, 10, "nOK", Font_7x10, ILI9341_RED, ILI9341_BLACK);}
 562              		.loc 1 354 6 view .LVU105
 563 0038 002B     		cmp	r3, #0
 564 003a 00F06682 		beq	.L28
 354:Core/Src/freertos.c ****   else  {ILI9341_WriteString(85, 10, "nOK", Font_7x10, ILI9341_RED, ILI9341_BLACK);}
 565              		.loc 1 354 28 is_stmt 1 discriminator 1 view .LVU106
 566 003e A64B     		ldr	r3, .L75
 567 0040 0022     		movs	r2, #0
 568 0042 0292     		str	r2, [sp, #8]
 569 0044 4FF4FC62 		mov	r2, #2016
 570 0048 0192     		str	r2, [sp, #4]
 571 004a 5A68     		ldr	r2, [r3, #4]
 572 004c 0092     		str	r2, [sp]
 573 004e 1B68     		ldr	r3, [r3]
 574 0050 A44A     		ldr	r2, .L75+12
 575 0052 0A21     		movs	r1, #10
 576 0054 5520     		movs	r0, #85
 577 0056 FFF7FEFF 		bl	ILI9341_WriteString
 578              	.LVL40:
 579              	.L29:
 357:Core/Src/freertos.c ****   if (SIM800_Status.GPRS)  {ILI9341_WriteString(172, 10, "OK", Font_7x10, ILI9341_GREEN, ILI9341_BL
 580              		.loc 1 357 3 view .LVU107
 581 005a 9F4B     		ldr	r3, .L75
 582 005c 0022     		movs	r2, #0
 583 005e 0292     		str	r2, [sp, #8]
ARM GAS  C:\Users\Vento\AppData\Local\Temp\ccEg74I3.s 			page 25


 584 0060 4FF6FF72 		movw	r2, #65535
 585 0064 0192     		str	r2, [sp, #4]
 586 0066 5A68     		ldr	r2, [r3, #4]
 587 0068 0092     		str	r2, [sp]
 588 006a 1B68     		ldr	r3, [r3]
 589 006c 9E4A     		ldr	r2, .L75+16
 590 006e 0A21     		movs	r1, #10
 591 0070 8220     		movs	r0, #130
 592 0072 FFF7FEFF 		bl	ILI9341_WriteString
 593              	.LVL41:
 358:Core/Src/freertos.c ****   else  {ILI9341_WriteString(172, 10, "nOK", Font_7x10, ILI9341_RED, ILI9341_BLACK);}
 594              		.loc 1 358 3 view .LVU108
 358:Core/Src/freertos.c ****   else  {ILI9341_WriteString(172, 10, "nOK", Font_7x10, ILI9341_RED, ILI9341_BLACK);}
 595              		.loc 1 358 20 is_stmt 0 view .LVU109
 596 0076 9A4B     		ldr	r3, .L75+8
 597 0078 5B78     		ldrb	r3, [r3, #1]	@ zero_extendqisi2
 358:Core/Src/freertos.c ****   else  {ILI9341_WriteString(172, 10, "nOK", Font_7x10, ILI9341_RED, ILI9341_BLACK);}
 598              		.loc 1 358 6 view .LVU110
 599 007a 002B     		cmp	r3, #0
 600 007c 00F05482 		beq	.L30
 358:Core/Src/freertos.c ****   else  {ILI9341_WriteString(172, 10, "nOK", Font_7x10, ILI9341_RED, ILI9341_BLACK);}
 601              		.loc 1 358 29 is_stmt 1 discriminator 1 view .LVU111
 602 0080 954B     		ldr	r3, .L75
 603 0082 0022     		movs	r2, #0
 604 0084 0292     		str	r2, [sp, #8]
 605 0086 4FF4FC62 		mov	r2, #2016
 606 008a 0192     		str	r2, [sp, #4]
 607 008c 5A68     		ldr	r2, [r3, #4]
 608 008e 0092     		str	r2, [sp]
 609 0090 1B68     		ldr	r3, [r3]
 610 0092 944A     		ldr	r2, .L75+12
 611 0094 0A21     		movs	r1, #10
 612 0096 AC20     		movs	r0, #172
 613 0098 FFF7FEFF 		bl	ILI9341_WriteString
 614              	.LVL42:
 615              	.L31:
 361:Core/Src/freertos.c ****   if (SIM800_Status.MQTT)  {ILI9341_WriteString(262, 10, "OK", Font_7x10, ILI9341_GREEN, ILI9341_BL
 616              		.loc 1 361 3 view .LVU112
 617 009c 8E4B     		ldr	r3, .L75
 618 009e 0022     		movs	r2, #0
 619 00a0 0292     		str	r2, [sp, #8]
 620 00a2 4FF6FF72 		movw	r2, #65535
 621 00a6 0192     		str	r2, [sp, #4]
 622 00a8 5A68     		ldr	r2, [r3, #4]
 623 00aa 0092     		str	r2, [sp]
 624 00ac 1B68     		ldr	r3, [r3]
 625 00ae 8F4A     		ldr	r2, .L75+20
 626 00b0 0A21     		movs	r1, #10
 627 00b2 DC20     		movs	r0, #220
 628 00b4 FFF7FEFF 		bl	ILI9341_WriteString
 629              	.LVL43:
 362:Core/Src/freertos.c ****   else  {ILI9341_WriteString(262, 10, "nOK", Font_7x10, ILI9341_RED, ILI9341_BLACK);}
 630              		.loc 1 362 3 view .LVU113
 362:Core/Src/freertos.c ****   else  {ILI9341_WriteString(262, 10, "nOK", Font_7x10, ILI9341_RED, ILI9341_BLACK);}
 631              		.loc 1 362 20 is_stmt 0 view .LVU114
 632 00b8 894B     		ldr	r3, .L75+8
 633 00ba 9B78     		ldrb	r3, [r3, #2]	@ zero_extendqisi2
ARM GAS  C:\Users\Vento\AppData\Local\Temp\ccEg74I3.s 			page 26


 362:Core/Src/freertos.c ****   else  {ILI9341_WriteString(262, 10, "nOK", Font_7x10, ILI9341_RED, ILI9341_BLACK);}
 634              		.loc 1 362 6 view .LVU115
 635 00bc 002B     		cmp	r3, #0
 636 00be 00F04282 		beq	.L32
 362:Core/Src/freertos.c ****   else  {ILI9341_WriteString(262, 10, "nOK", Font_7x10, ILI9341_RED, ILI9341_BLACK);}
 637              		.loc 1 362 29 is_stmt 1 discriminator 1 view .LVU116
 638 00c2 854B     		ldr	r3, .L75
 639 00c4 0022     		movs	r2, #0
 640 00c6 0292     		str	r2, [sp, #8]
 641 00c8 4FF4FC62 		mov	r2, #2016
 642 00cc 0192     		str	r2, [sp, #4]
 643 00ce 5A68     		ldr	r2, [r3, #4]
 644 00d0 0092     		str	r2, [sp]
 645 00d2 1B68     		ldr	r3, [r3]
 646 00d4 834A     		ldr	r2, .L75+12
 647 00d6 0A21     		movs	r1, #10
 648 00d8 4FF48370 		mov	r0, #262
 649 00dc FFF7FEFF 		bl	ILI9341_WriteString
 650              	.LVL44:
 651              	.L33:
 365:Core/Src/freertos.c **** 
 652              		.loc 1 365 3 view .LVU117
 653 00e0 4FF6FF78 		movw	r8, #65535
 654 00e4 CDF80080 		str	r8, [sp]
 655 00e8 6423     		movs	r3, #100
 656 00ea A022     		movs	r2, #160
 657 00ec 1B21     		movs	r1, #27
 658 00ee 1046     		mov	r0, r2
 659 00f0 FFF7FEFF 		bl	ILI9341_DrawLine
 660              	.LVL45:
 367:Core/Src/freertos.c ****   ILI9341_WriteString(10, 55, "Temp: ", Font_11x18, ILI9341_ORANGE, ILI9341_BLACK);
 661              		.loc 1 367 3 view .LVU118
 662 00f4 7E4C     		ldr	r4, .L75+24
 663 00f6 0025     		movs	r5, #0
 664 00f8 0295     		str	r5, [sp, #8]
 665 00fa CDF80480 		str	r8, [sp, #4]
 666 00fe 6368     		ldr	r3, [r4, #4]
 667 0100 0093     		str	r3, [sp]
 668 0102 2368     		ldr	r3, [r4]
 669 0104 7B4A     		ldr	r2, .L75+28
 670 0106 1E21     		movs	r1, #30
 671 0108 3220     		movs	r0, #50
 672 010a FFF7FEFF 		bl	ILI9341_WriteString
 673              	.LVL46:
 368:Core/Src/freertos.c ****   ftoa(Node_1.Temperature, StrgTemp, 2);
 674              		.loc 1 368 3 view .LVU119
 675 010e DFF8E8B1 		ldr	fp, .L75+32
 676 0112 0295     		str	r5, [sp, #8]
 677 0114 4FF62056 		movw	r6, #64800
 678 0118 0196     		str	r6, [sp, #4]
 679 011a 6368     		ldr	r3, [r4, #4]
 680 011c 0093     		str	r3, [sp]
 681 011e 2368     		ldr	r3, [r4]
 682 0120 5A46     		mov	r2, fp
 683 0122 3721     		movs	r1, #55
 684 0124 0A20     		movs	r0, #10
 685 0126 FFF7FEFF 		bl	ILI9341_WriteString
ARM GAS  C:\Users\Vento\AppData\Local\Temp\ccEg74I3.s 			page 27


 686              	.LVL47:
 369:Core/Src/freertos.c ****   ILI9341_WriteString(76, 55, StrgTemp, Font_11x18, ILI9341_ORANGE, ILI9341_BLACK);
 687              		.loc 1 369 3 view .LVU120
 688 012a DFF8D0A1 		ldr	r10, .L75+36
 689 012e 0222     		movs	r2, #2
 690 0130 08A9     		add	r1, sp, #32
 691 0132 DAF80000 		ldr	r0, [r10]	@ float
 692 0136 FFF7FEFF 		bl	ftoa
 693              	.LVL48:
 370:Core/Src/freertos.c ****   ILI9341_WriteString(132, 55, "o", Font_7x10, ILI9341_ORANGE, ILI9341_BLACK);
 694              		.loc 1 370 3 view .LVU121
 695 013a 0295     		str	r5, [sp, #8]
 696 013c 0196     		str	r6, [sp, #4]
 697 013e 6368     		ldr	r3, [r4, #4]
 698 0140 0093     		str	r3, [sp]
 699 0142 2368     		ldr	r3, [r4]
 700 0144 08AA     		add	r2, sp, #32
 701 0146 3721     		movs	r1, #55
 702 0148 4C20     		movs	r0, #76
 703 014a FFF7FEFF 		bl	ILI9341_WriteString
 704              	.LVL49:
 371:Core/Src/freertos.c ****   ILI9341_WriteString(140, 55, "C", Font_11x18, ILI9341_ORANGE, ILI9341_BLACK);
 705              		.loc 1 371 3 view .LVU122
 706 014e DFF88891 		ldr	r9, .L75
 707 0152 0295     		str	r5, [sp, #8]
 708 0154 0196     		str	r6, [sp, #4]
 709 0156 D9F80430 		ldr	r3, [r9, #4]
 710 015a 0093     		str	r3, [sp]
 711 015c D9F80030 		ldr	r3, [r9]
 712 0160 674A     		ldr	r2, .L75+40
 713 0162 3721     		movs	r1, #55
 714 0164 8420     		movs	r0, #132
 715 0166 FFF7FEFF 		bl	ILI9341_WriteString
 716              	.LVL50:
 372:Core/Src/freertos.c ****   ILI9341_WriteString(10, 80, "Humd: ", Font_11x18, ILI9341_LIGHTBLUE, ILI9341_BLACK);
 717              		.loc 1 372 3 view .LVU123
 718 016a 0295     		str	r5, [sp, #8]
 719 016c 0196     		str	r6, [sp, #4]
 720 016e 6368     		ldr	r3, [r4, #4]
 721 0170 0093     		str	r3, [sp]
 722 0172 2368     		ldr	r3, [r4]
 723 0174 634A     		ldr	r2, .L75+44
 724 0176 3721     		movs	r1, #55
 725 0178 8C20     		movs	r0, #140
 726 017a FFF7FEFF 		bl	ILI9341_WriteString
 727              	.LVL51:
 373:Core/Src/freertos.c ****   intToStr((int)Node_1.Humidity, StrgHumd, 2);
 728              		.loc 1 373 3 view .LVU124
 729 017e 0295     		str	r5, [sp, #8]
 730 0180 47F67C57 		movw	r7, #32124
 731 0184 0197     		str	r7, [sp, #4]
 732 0186 6368     		ldr	r3, [r4, #4]
 733 0188 0093     		str	r3, [sp]
 734 018a 2368     		ldr	r3, [r4]
 735 018c 5E4A     		ldr	r2, .L75+48
 736 018e 5021     		movs	r1, #80
 737 0190 0A20     		movs	r0, #10
ARM GAS  C:\Users\Vento\AppData\Local\Temp\ccEg74I3.s 			page 28


 738 0192 FFF7FEFF 		bl	ILI9341_WriteString
 739              	.LVL52:
 374:Core/Src/freertos.c ****   ILI9341_WriteString(76, 80, StrgHumd, Font_11x18, ILI9341_LIGHTBLUE, ILI9341_BLACK);
 740              		.loc 1 374 3 view .LVU125
 741 0196 DAF80400 		ldr	r0, [r10, #4]	@ float
 742 019a FFF7FEFF 		bl	__aeabi_f2iz
 743              	.LVL53:
 744 019e 0222     		movs	r2, #2
 745 01a0 07A9     		add	r1, sp, #28
 746 01a2 FFF7FEFF 		bl	intToStr
 747              	.LVL54:
 375:Core/Src/freertos.c ****   ILI9341_WriteString(100, 80, "%", Font_11x18, ILI9341_LIGHTBLUE, ILI9341_BLACK);
 748              		.loc 1 375 3 view .LVU126
 749 01a6 0295     		str	r5, [sp, #8]
 750 01a8 0197     		str	r7, [sp, #4]
 751 01aa 6368     		ldr	r3, [r4, #4]
 752 01ac 0093     		str	r3, [sp]
 753 01ae 2368     		ldr	r3, [r4]
 754 01b0 07AA     		add	r2, sp, #28
 755 01b2 5021     		movs	r1, #80
 756 01b4 4C20     		movs	r0, #76
 757 01b6 FFF7FEFF 		bl	ILI9341_WriteString
 758              	.LVL55:
 376:Core/Src/freertos.c **** 
 759              		.loc 1 376 3 view .LVU127
 760 01ba DFF850A1 		ldr	r10, .L75+52
 761 01be 0295     		str	r5, [sp, #8]
 762 01c0 0197     		str	r7, [sp, #4]
 763 01c2 6368     		ldr	r3, [r4, #4]
 764 01c4 0093     		str	r3, [sp]
 765 01c6 2368     		ldr	r3, [r4]
 766 01c8 5246     		mov	r2, r10
 767 01ca 5021     		movs	r1, #80
 768 01cc 6420     		movs	r0, #100
 769 01ce FFF7FEFF 		bl	ILI9341_WriteString
 770              	.LVL56:
 378:Core/Src/freertos.c ****   ILI9341_WriteString(170, 55, "Temp: ", Font_11x18, ILI9341_ORANGE, ILI9341_BLACK);
 771              		.loc 1 378 3 view .LVU128
 772 01d2 0295     		str	r5, [sp, #8]
 773 01d4 CDF80480 		str	r8, [sp, #4]
 774 01d8 6368     		ldr	r3, [r4, #4]
 775 01da 0093     		str	r3, [sp]
 776 01dc 2368     		ldr	r3, [r4]
 777 01de 4C4A     		ldr	r2, .L75+56
 778 01e0 1E21     		movs	r1, #30
 779 01e2 D220     		movs	r0, #210
 780 01e4 FFF7FEFF 		bl	ILI9341_WriteString
 781              	.LVL57:
 379:Core/Src/freertos.c ****   ftoa(Node_2.Temperature, StrgTemp, 2);
 782              		.loc 1 379 3 view .LVU129
 783 01e8 0295     		str	r5, [sp, #8]
 784 01ea 0196     		str	r6, [sp, #4]
 785 01ec 6368     		ldr	r3, [r4, #4]
 786 01ee 0093     		str	r3, [sp]
 787 01f0 2368     		ldr	r3, [r4]
 788 01f2 5A46     		mov	r2, fp
 789 01f4 3721     		movs	r1, #55
ARM GAS  C:\Users\Vento\AppData\Local\Temp\ccEg74I3.s 			page 29


 790 01f6 AA20     		movs	r0, #170
 791 01f8 FFF7FEFF 		bl	ILI9341_WriteString
 792              	.LVL58:
 380:Core/Src/freertos.c ****   ILI9341_WriteString(236, 55, StrgTemp, Font_11x18, ILI9341_ORANGE, ILI9341_BLACK);
 793              		.loc 1 380 3 view .LVU130
 794 01fc DFF814B1 		ldr	fp, .L75+60
 795 0200 0222     		movs	r2, #2
 796 0202 08A9     		add	r1, sp, #32
 797 0204 DBF80000 		ldr	r0, [fp]	@ float
 798 0208 FFF7FEFF 		bl	ftoa
 799              	.LVL59:
 381:Core/Src/freertos.c ****   ILI9341_WriteString(293, 55, "o", Font_7x10, ILI9341_ORANGE, ILI9341_BLACK);
 800              		.loc 1 381 3 view .LVU131
 801 020c 0295     		str	r5, [sp, #8]
 802 020e 0196     		str	r6, [sp, #4]
 803 0210 6368     		ldr	r3, [r4, #4]
 804 0212 0093     		str	r3, [sp]
 805 0214 2368     		ldr	r3, [r4]
 806 0216 08AA     		add	r2, sp, #32
 807 0218 3721     		movs	r1, #55
 808 021a EC20     		movs	r0, #236
 809 021c FFF7FEFF 		bl	ILI9341_WriteString
 810              	.LVL60:
 382:Core/Src/freertos.c ****   ILI9341_WriteString(300, 55, "C", Font_11x18, ILI9341_ORANGE, ILI9341_BLACK);
 811              		.loc 1 382 3 view .LVU132
 812 0220 0295     		str	r5, [sp, #8]
 813 0222 0196     		str	r6, [sp, #4]
 814 0224 D9F80430 		ldr	r3, [r9, #4]
 815 0228 0093     		str	r3, [sp]
 816 022a D9F80030 		ldr	r3, [r9]
 817 022e 344A     		ldr	r2, .L75+40
 818 0230 3721     		movs	r1, #55
 819 0232 40F22510 		movw	r0, #293
 820 0236 FFF7FEFF 		bl	ILI9341_WriteString
 821              	.LVL61:
 383:Core/Src/freertos.c ****   ILI9341_WriteString(170, 80, "Humd: ", Font_11x18, ILI9341_LIGHTBLUE, ILI9341_BLACK);
 822              		.loc 1 383 3 view .LVU133
 823 023a 0295     		str	r5, [sp, #8]
 824 023c 0196     		str	r6, [sp, #4]
 825 023e 6368     		ldr	r3, [r4, #4]
 826 0240 0093     		str	r3, [sp]
 827 0242 2368     		ldr	r3, [r4]
 828 0244 2F4A     		ldr	r2, .L75+44
 829 0246 3721     		movs	r1, #55
 830 0248 4FF49670 		mov	r0, #300
 831 024c FFF7FEFF 		bl	ILI9341_WriteString
 832              	.LVL62:
 384:Core/Src/freertos.c ****   intToStr((int)Node_2.Humidity, StrgHumd, 2);
 833              		.loc 1 384 3 view .LVU134
 834 0250 0295     		str	r5, [sp, #8]
 835 0252 0197     		str	r7, [sp, #4]
 836 0254 6368     		ldr	r3, [r4, #4]
 837 0256 0093     		str	r3, [sp]
 838 0258 2368     		ldr	r3, [r4]
 839 025a 2B4A     		ldr	r2, .L75+48
 840 025c 5021     		movs	r1, #80
 841 025e AA20     		movs	r0, #170
ARM GAS  C:\Users\Vento\AppData\Local\Temp\ccEg74I3.s 			page 30


 842 0260 FFF7FEFF 		bl	ILI9341_WriteString
 843              	.LVL63:
 385:Core/Src/freertos.c ****   ILI9341_WriteString(236, 80, StrgHumd, Font_11x18, ILI9341_LIGHTBLUE, ILI9341_BLACK);
 844              		.loc 1 385 3 view .LVU135
 845 0264 DBF80400 		ldr	r0, [fp, #4]	@ float
 846 0268 FFF7FEFF 		bl	__aeabi_f2iz
 847              	.LVL64:
 848 026c 0222     		movs	r2, #2
 849 026e 07A9     		add	r1, sp, #28
 850 0270 FFF7FEFF 		bl	intToStr
 851              	.LVL65:
 386:Core/Src/freertos.c ****   ILI9341_WriteString(260, 80, "%", Font_11x18, ILI9341_LIGHTBLUE, ILI9341_BLACK);
 852              		.loc 1 386 3 view .LVU136
 853 0274 0295     		str	r5, [sp, #8]
 854 0276 0197     		str	r7, [sp, #4]
 855 0278 6368     		ldr	r3, [r4, #4]
 856 027a 0093     		str	r3, [sp]
 857 027c 2368     		ldr	r3, [r4]
 858 027e 07AA     		add	r2, sp, #28
 859 0280 5021     		movs	r1, #80
 860 0282 EC20     		movs	r0, #236
 861 0284 FFF7FEFF 		bl	ILI9341_WriteString
 862              	.LVL66:
 387:Core/Src/freertos.c **** 
 863              		.loc 1 387 3 view .LVU137
 864 0288 0295     		str	r5, [sp, #8]
 865 028a 0197     		str	r7, [sp, #4]
 866 028c 6368     		ldr	r3, [r4, #4]
 867 028e 0093     		str	r3, [sp]
 868 0290 2368     		ldr	r3, [r4]
 869 0292 5246     		mov	r2, r10
 870 0294 5021     		movs	r1, #80
 871 0296 4FF48270 		mov	r0, #260
 872 029a FFF7FEFF 		bl	ILI9341_WriteString
 873              	.LVL67:
 389:Core/Src/freertos.c ****   ftoa(DirtHumd, StrgVolt, 3);
 874              		.loc 1 389 3 view .LVU138
 875 029e 0295     		str	r5, [sp, #8]
 876 02a0 4BF64047 		movw	r7, #48192
 877 02a4 0197     		str	r7, [sp, #4]
 878 02a6 6368     		ldr	r3, [r4, #4]
 879 02a8 0093     		str	r3, [sp]
 880 02aa 2368     		ldr	r3, [r4]
 881 02ac 1A4A     		ldr	r2, .L75+64
 882 02ae 6E21     		movs	r1, #110
 883 02b0 2C20     		movs	r0, #44
 884 02b2 FFF7FEFF 		bl	ILI9341_WriteString
 885              	.LVL68:
 390:Core/Src/freertos.c ****   ILI9341_WriteString(209, 110, StrgVolt, Font_11x18, ILI9341_BROWN, ILI9341_BLACK);
 886              		.loc 1 390 3 view .LVU139
 887 02b6 0322     		movs	r2, #3
 888 02b8 05A9     		add	r1, sp, #20
 889 02ba 184B     		ldr	r3, .L75+68
 890 02bc 1868     		ldr	r0, [r3]	@ float
 891 02be FFF7FEFF 		bl	ftoa
 892              	.LVL69:
 391:Core/Src/freertos.c ****   ILI9341_WriteString(264, 110, " V", Font_11x18, ILI9341_BROWN, ILI9341_BLACK);
ARM GAS  C:\Users\Vento\AppData\Local\Temp\ccEg74I3.s 			page 31


 893              		.loc 1 391 3 view .LVU140
 894 02c2 0295     		str	r5, [sp, #8]
 895 02c4 0197     		str	r7, [sp, #4]
 896 02c6 6368     		ldr	r3, [r4, #4]
 897 02c8 0093     		str	r3, [sp]
 898 02ca 2368     		ldr	r3, [r4]
 899 02cc 05AA     		add	r2, sp, #20
 900 02ce 6E21     		movs	r1, #110
 901 02d0 D120     		movs	r0, #209
 902 02d2 FFF7FEFF 		bl	ILI9341_WriteString
 903              	.LVL70:
 904 02d6 23E0     		b	.L76
 905              	.L77:
 906              		.align	2
 907              	.L75:
 908 02d8 00000000 		.word	Font_7x10
 909 02dc 00000000 		.word	.LC7
 910 02e0 00000000 		.word	SIM800_Status
 911 02e4 08000000 		.word	.LC8
 912 02e8 10000000 		.word	.LC10
 913 02ec 18000000 		.word	.LC11
 914 02f0 00000000 		.word	Font_11x18
 915 02f4 20000000 		.word	.LC12
 916 02f8 28000000 		.word	.LC13
 917 02fc 00000000 		.word	.LANCHOR2
 918 0300 30000000 		.word	.LC14
 919 0304 34000000 		.word	.LC15
 920 0308 38000000 		.word	.LC16
 921 030c 40000000 		.word	.LC17
 922 0310 44000000 		.word	.LC18
 923 0314 00000000 		.word	.LANCHOR8
 924 0318 4C000000 		.word	.LC19
 925 031c 00000000 		.word	.LANCHOR7
 926              	.L76:
 392:Core/Src/freertos.c **** 
 927              		.loc 1 392 3 view .LVU141
 928 0320 9C4E     		ldr	r6, .L78
 929 0322 0295     		str	r5, [sp, #8]
 930 0324 0197     		str	r7, [sp, #4]
 931 0326 6368     		ldr	r3, [r4, #4]
 932 0328 0093     		str	r3, [sp]
 933 032a 2368     		ldr	r3, [r4]
 934 032c 3246     		mov	r2, r6
 935 032e 6E21     		movs	r1, #110
 936 0330 4FF48470 		mov	r0, #264
 937 0334 FFF7FEFF 		bl	ILI9341_WriteString
 938              	.LVL71:
 394:Core/Src/freertos.c ****   ftoa(LipoBatt.voltage, StrgVolt, 3);
 939              		.loc 1 394 3 view .LVU142
 940 0338 0295     		str	r5, [sp, #8]
 941 033a 4FF47847 		mov	r7, #63488
 942 033e 0197     		str	r7, [sp, #4]
 943 0340 6368     		ldr	r3, [r4, #4]
 944 0342 0093     		str	r3, [sp]
 945 0344 2368     		ldr	r3, [r4]
 946 0346 944A     		ldr	r2, .L78+4
 947 0348 8721     		movs	r1, #135
ARM GAS  C:\Users\Vento\AppData\Local\Temp\ccEg74I3.s 			page 32


 948 034a 2C20     		movs	r0, #44
 949 034c FFF7FEFF 		bl	ILI9341_WriteString
 950              	.LVL72:
 395:Core/Src/freertos.c ****   ILI9341_WriteString(209, 135, StrgVolt, Font_11x18, ILI9341_RED, ILI9341_BLACK);
 951              		.loc 1 395 3 view .LVU143
 952 0350 924B     		ldr	r3, .L78+8
 953 0352 D3E90001 		ldrd	r0, [r3]
 954 0356 FFF7FEFF 		bl	__aeabi_d2f
 955              	.LVL73:
 956 035a 0322     		movs	r2, #3
 957 035c 05A9     		add	r1, sp, #20
 958 035e FFF7FEFF 		bl	ftoa
 959              	.LVL74:
 396:Core/Src/freertos.c ****   ILI9341_WriteString(264, 135, " V", Font_11x18, ILI9341_RED, ILI9341_BLACK);
 960              		.loc 1 396 3 view .LVU144
 961 0362 0295     		str	r5, [sp, #8]
 962 0364 0197     		str	r7, [sp, #4]
 963 0366 6368     		ldr	r3, [r4, #4]
 964 0368 0093     		str	r3, [sp]
 965 036a 2368     		ldr	r3, [r4]
 966 036c 05AA     		add	r2, sp, #20
 967 036e 8721     		movs	r1, #135
 968 0370 D120     		movs	r0, #209
 969 0372 FFF7FEFF 		bl	ILI9341_WriteString
 970              	.LVL75:
 397:Core/Src/freertos.c **** 
 971              		.loc 1 397 3 view .LVU145
 972 0376 0295     		str	r5, [sp, #8]
 973 0378 0197     		str	r7, [sp, #4]
 974 037a 6368     		ldr	r3, [r4, #4]
 975 037c 0093     		str	r3, [sp]
 976 037e 2368     		ldr	r3, [r4]
 977 0380 3246     		mov	r2, r6
 978 0382 8721     		movs	r1, #135
 979 0384 4FF48470 		mov	r0, #264
 980 0388 FFF7FEFF 		bl	ILI9341_WriteString
 981              	.LVL76:
 399:Core/Src/freertos.c ****   ftoa(Solar.voltage, StrgVolt, 3);
 982              		.loc 1 399 3 view .LVU146
 983 038c 0295     		str	r5, [sp, #8]
 984 038e 4FF6E077 		movw	r7, #65504
 985 0392 0197     		str	r7, [sp, #4]
 986 0394 6368     		ldr	r3, [r4, #4]
 987 0396 0093     		str	r3, [sp]
 988 0398 2368     		ldr	r3, [r4]
 989 039a 814A     		ldr	r2, .L78+12
 990 039c A021     		movs	r1, #160
 991 039e 2C20     		movs	r0, #44
 992 03a0 FFF7FEFF 		bl	ILI9341_WriteString
 993              	.LVL77:
 400:Core/Src/freertos.c ****   ILI9341_WriteString(209, 160, StrgVolt, Font_11x18, ILI9341_YELLOW, ILI9341_BLACK);
 994              		.loc 1 400 3 view .LVU147
 995 03a4 7F4B     		ldr	r3, .L78+16
 996 03a6 D3E90001 		ldrd	r0, [r3]
 997 03aa FFF7FEFF 		bl	__aeabi_d2f
 998              	.LVL78:
 999 03ae 0322     		movs	r2, #3
ARM GAS  C:\Users\Vento\AppData\Local\Temp\ccEg74I3.s 			page 33


 1000 03b0 05A9     		add	r1, sp, #20
 1001 03b2 FFF7FEFF 		bl	ftoa
 1002              	.LVL79:
 401:Core/Src/freertos.c ****   ILI9341_WriteString(264, 160, " V", Font_11x18, ILI9341_YELLOW, ILI9341_BLACK);
 1003              		.loc 1 401 3 view .LVU148
 1004 03b6 0295     		str	r5, [sp, #8]
 1005 03b8 0197     		str	r7, [sp, #4]
 1006 03ba 6368     		ldr	r3, [r4, #4]
 1007 03bc 0093     		str	r3, [sp]
 1008 03be 2368     		ldr	r3, [r4]
 1009 03c0 05AA     		add	r2, sp, #20
 1010 03c2 A021     		movs	r1, #160
 1011 03c4 D120     		movs	r0, #209
 1012 03c6 FFF7FEFF 		bl	ILI9341_WriteString
 1013              	.LVL80:
 402:Core/Src/freertos.c **** 
 1014              		.loc 1 402 3 view .LVU149
 1015 03ca 0295     		str	r5, [sp, #8]
 1016 03cc 0197     		str	r7, [sp, #4]
 1017 03ce 6368     		ldr	r3, [r4, #4]
 1018 03d0 0093     		str	r3, [sp]
 1019 03d2 2368     		ldr	r3, [r4]
 1020 03d4 3246     		mov	r2, r6
 1021 03d6 A021     		movs	r1, #160
 1022 03d8 4FF48470 		mov	r0, #264
 1023 03dc FFF7FEFF 		bl	ILI9341_WriteString
 1024              	.LVL81:
 404:Core/Src/freertos.c ****   if (Button_1.state == true) 
 1025              		.loc 1 404 3 view .LVU150
 1026 03e0 0295     		str	r5, [sp, #8]
 1027 03e2 CDF80480 		str	r8, [sp, #4]
 1028 03e6 6368     		ldr	r3, [r4, #4]
 1029 03e8 0093     		str	r3, [sp]
 1030 03ea 2368     		ldr	r3, [r4]
 1031 03ec 6E4A     		ldr	r2, .L78+20
 1032 03ee BE21     		movs	r1, #190
 1033 03f0 6E20     		movs	r0, #110
 1034 03f2 FFF7FEFF 		bl	ILI9341_WriteString
 1035              	.LVL82:
 405:Core/Src/freertos.c ****   {
 1036              		.loc 1 405 3 view .LVU151
 405:Core/Src/freertos.c ****   {
 1037              		.loc 1 405 15 is_stmt 0 view .LVU152
 1038 03f6 6D4B     		ldr	r3, .L78+24
 1039 03f8 1B7B     		ldrb	r3, [r3, #12]	@ zero_extendqisi2
 405:Core/Src/freertos.c ****   {
 1040              		.loc 1 405 6 view .LVU153
 1041 03fa 002B     		cmp	r3, #0
 1042 03fc 00F0B380 		beq	.L34
 407:Core/Src/freertos.c ****     ILI9341_WriteString(180, 190, "ON", Font_11x18, ILI9341_BLACK, ILI9341_GREEN);
 1043              		.loc 1 407 5 is_stmt 1 view .LVU154
 1044 0400 6A48     		ldr	r0, .L78+24
 1045 0402 4FF4FC64 		mov	r4, #2016
 1046 0406 0094     		str	r4, [sp]
 1047 0408 0389     		ldrh	r3, [r0, #8]
 1048 040a C288     		ldrh	r2, [r0, #6]
 1049 040c 4188     		ldrh	r1, [r0, #2]
ARM GAS  C:\Users\Vento\AppData\Local\Temp\ccEg74I3.s 			page 34


 1050 040e 0088     		ldrh	r0, [r0]
 1051 0410 FFF7FEFF 		bl	ILI9341_FillRectangle
 1052              	.LVL83:
 408:Core/Src/freertos.c ****   }
 1053              		.loc 1 408 5 view .LVU155
 1054 0414 664B     		ldr	r3, .L78+28
 1055 0416 0294     		str	r4, [sp, #8]
 1056 0418 0195     		str	r5, [sp, #4]
 1057 041a 5A68     		ldr	r2, [r3, #4]
 1058 041c 0092     		str	r2, [sp]
 1059 041e 1B68     		ldr	r3, [r3]
 1060 0420 644A     		ldr	r2, .L78+32
 1061 0422 BE21     		movs	r1, #190
 1062 0424 B420     		movs	r0, #180
 1063 0426 FFF7FEFF 		bl	ILI9341_WriteString
 1064              	.LVL84:
 1065              	.L35:
 415:Core/Src/freertos.c ****   {
 1066              		.loc 1 415 3 view .LVU156
 415:Core/Src/freertos.c ****   {
 1067              		.loc 1 415 15 is_stmt 0 view .LVU157
 1068 042a 634B     		ldr	r3, .L78+36
 1069 042c 1B7B     		ldrb	r3, [r3, #12]	@ zero_extendqisi2
 415:Core/Src/freertos.c ****   {
 1070              		.loc 1 415 6 view .LVU158
 1071 042e 002B     		cmp	r3, #0
 1072 0430 00F0E080 		beq	.L36
 417:Core/Src/freertos.c ****     ILI9341_WriteString(253, 190, "AUTO", Font_11x18, ILI9341_BLACK, ILI9341_GREEN);
 1073              		.loc 1 417 5 is_stmt 1 view .LVU159
 1074 0434 6048     		ldr	r0, .L78+36
 1075 0436 4FF4FC64 		mov	r4, #2016
 1076 043a 0094     		str	r4, [sp]
 1077 043c 0389     		ldrh	r3, [r0, #8]
 1078 043e C288     		ldrh	r2, [r0, #6]
 1079 0440 4188     		ldrh	r1, [r0, #2]
 1080 0442 0088     		ldrh	r0, [r0]
 1081 0444 FFF7FEFF 		bl	ILI9341_FillRectangle
 1082              	.LVL85:
 418:Core/Src/freertos.c ****   }
 1083              		.loc 1 418 5 view .LVU160
 1084 0448 594B     		ldr	r3, .L78+28
 1085 044a 0294     		str	r4, [sp, #8]
 1086 044c 0022     		movs	r2, #0
 1087 044e 0192     		str	r2, [sp, #4]
 1088 0450 5A68     		ldr	r2, [r3, #4]
 1089 0452 0092     		str	r2, [sp]
 1090 0454 1B68     		ldr	r3, [r3]
 1091 0456 594A     		ldr	r2, .L78+40
 1092 0458 BE21     		movs	r1, #190
 1093 045a FD20     		movs	r0, #253
 1094 045c FFF7FEFF 		bl	ILI9341_WriteString
 1095              	.LVL86:
 1096              	.L37:
 426:Core/Src/freertos.c ****   ILI9341_WriteString(160, 220, "...", Font_11x18, ILI9341_WHITE, ILI9341_BLACK);
 1097              		.loc 1 426 3 view .LVU161
 1098 0460 534C     		ldr	r4, .L78+28
 1099 0462 0026     		movs	r6, #0
ARM GAS  C:\Users\Vento\AppData\Local\Temp\ccEg74I3.s 			page 35


 1100 0464 0296     		str	r6, [sp, #8]
 1101 0466 4FF6FF75 		movw	r5, #65535
 1102 046a 0195     		str	r5, [sp, #4]
 1103 046c 6368     		ldr	r3, [r4, #4]
 1104 046e 0093     		str	r3, [sp]
 1105 0470 2368     		ldr	r3, [r4]
 1106 0472 534A     		ldr	r2, .L78+44
 1107 0474 DC21     		movs	r1, #220
 1108 0476 5320     		movs	r0, #83
 1109 0478 FFF7FEFF 		bl	ILI9341_WriteString
 1110              	.LVL87:
 427:Core/Src/freertos.c ****   
 1111              		.loc 1 427 3 view .LVU162
 1112 047c 0296     		str	r6, [sp, #8]
 1113 047e 0195     		str	r5, [sp, #4]
 1114 0480 6368     		ldr	r3, [r4, #4]
 1115 0482 0093     		str	r3, [sp]
 1116 0484 2368     		ldr	r3, [r4]
 1117 0486 4F4A     		ldr	r2, .L78+48
 1118 0488 DC21     		movs	r1, #220
 1119 048a A020     		movs	r0, #160
 1120 048c FFF7FEFF 		bl	ILI9341_WriteString
 1121              	.LVL88:
 431:Core/Src/freertos.c ****   else  {Adapter.state = false;}
 1122              		.loc 1 431 3 view .LVU163
 431:Core/Src/freertos.c ****   else  {Adapter.state = false;}
 1123              		.loc 1 431 7 is_stmt 0 view .LVU164
 1124 0490 1021     		movs	r1, #16
 1125 0492 4D48     		ldr	r0, .L78+52
 1126 0494 FFF7FEFF 		bl	HAL_GPIO_ReadPin
 1127              	.LVL89:
 431:Core/Src/freertos.c ****   else  {Adapter.state = false;}
 1128              		.loc 1 431 6 view .LVU165
 1129 0498 0128     		cmp	r0, #1
 1130 049a 00F0C280 		beq	.L67
 432:Core/Src/freertos.c ****   if (HAL_GPIO_ReadPin(GPIOB, GPIO_PIN_12) == 1)  {Batt.state = true;}
 1131              		.loc 1 432 10 is_stmt 1 view .LVU166
 432:Core/Src/freertos.c ****   if (HAL_GPIO_ReadPin(GPIOB, GPIO_PIN_12) == 1)  {Batt.state = true;}
 1132              		.loc 1 432 24 is_stmt 0 view .LVU167
 1133 049e 4B4B     		ldr	r3, .L78+56
 1134 04a0 0022     		movs	r2, #0
 1135 04a2 1A70     		strb	r2, [r3]
 1136              	.L39:
 433:Core/Src/freertos.c ****   else  {Batt.state = false;}
 1137              		.loc 1 433 3 is_stmt 1 view .LVU168
 433:Core/Src/freertos.c ****   else  {Batt.state = false;}
 1138              		.loc 1 433 7 is_stmt 0 view .LVU169
 1139 04a4 4FF48051 		mov	r1, #4096
 1140 04a8 4748     		ldr	r0, .L78+52
 1141 04aa FFF7FEFF 		bl	HAL_GPIO_ReadPin
 1142              	.LVL90:
 433:Core/Src/freertos.c ****   else  {Batt.state = false;}
 1143              		.loc 1 433 6 view .LVU170
 1144 04ae 0128     		cmp	r0, #1
 1145 04b0 00F0BB80 		beq	.L68
 434:Core/Src/freertos.c **** 
 1146              		.loc 1 434 10 is_stmt 1 view .LVU171
ARM GAS  C:\Users\Vento\AppData\Local\Temp\ccEg74I3.s 			page 36


 434:Core/Src/freertos.c **** 
 1147              		.loc 1 434 21 is_stmt 0 view .LVU172
 1148 04b4 464B     		ldr	r3, .L78+60
 1149 04b6 0022     		movs	r2, #0
 1150 04b8 1A70     		strb	r2, [r3]
 1151              	.L41:
 436:Core/Src/freertos.c ****   else if (Adapter.state && !Batt.state)  {PowerSate = ADAPTER;}
 1152              		.loc 1 436 3 is_stmt 1 view .LVU173
 436:Core/Src/freertos.c ****   else if (Adapter.state && !Batt.state)  {PowerSate = ADAPTER;}
 1153              		.loc 1 436 14 is_stmt 0 view .LVU174
 1154 04ba 444B     		ldr	r3, .L78+56
 1155 04bc 1B78     		ldrb	r3, [r3]	@ zero_extendqisi2
 436:Core/Src/freertos.c ****   else if (Adapter.state && !Batt.state)  {PowerSate = ADAPTER;}
 1156              		.loc 1 436 6 view .LVU175
 1157 04be 002B     		cmp	r3, #0
 1158 04c0 00F0B780 		beq	.L42
 436:Core/Src/freertos.c ****   else if (Adapter.state && !Batt.state)  {PowerSate = ADAPTER;}
 1159              		.loc 1 436 28 discriminator 1 view .LVU176
 1160 04c4 424A     		ldr	r2, .L78+60
 1161 04c6 1278     		ldrb	r2, [r2]	@ zero_extendqisi2
 436:Core/Src/freertos.c ****   else if (Adapter.state && !Batt.state)  {PowerSate = ADAPTER;}
 1162              		.loc 1 436 21 discriminator 1 view .LVU177
 1163 04c8 002A     		cmp	r2, #0
 1164 04ca 00F0B280 		beq	.L42
 436:Core/Src/freertos.c ****   else if (Adapter.state && !Batt.state)  {PowerSate = ADAPTER;}
 1165              		.loc 1 436 44 is_stmt 1 discriminator 2 view .LVU178
 436:Core/Src/freertos.c ****   else if (Adapter.state && !Batt.state)  {PowerSate = ADAPTER;}
 1166              		.loc 1 436 54 is_stmt 0 discriminator 2 view .LVU179
 1167 04ce 414B     		ldr	r3, .L78+64
 1168 04d0 0222     		movs	r2, #2
 1169 04d2 1A70     		strb	r2, [r3]
 1170              	.L43:
 440:Core/Src/freertos.c **** 
 1171              		.loc 1 440 3 is_stmt 1 view .LVU180
 440:Core/Src/freertos.c **** 
 1172              		.loc 1 440 17 is_stmt 0 view .LVU181
 1173 04d4 3F4B     		ldr	r3, .L78+64
 1174 04d6 1B78     		ldrb	r3, [r3]	@ zero_extendqisi2
 440:Core/Src/freertos.c **** 
 1175              		.loc 1 440 6 view .LVU182
 1176 04d8 012B     		cmp	r3, #1
 1177 04da 40F0BD80 		bne	.L69
 1178              	.L45:
 443:Core/Src/freertos.c ****   osTimerStart(Timer02Handle, TimeOut);
 1179              		.loc 1 443 3 is_stmt 1 view .LVU183
 1180 04de 43F69821 		movw	r1, #15000
 1181 04e2 3D4B     		ldr	r3, .L78+68
 1182 04e4 1868     		ldr	r0, [r3]
 1183 04e6 FFF7FEFF 		bl	osTimerStart
 1184              	.LVL91:
 444:Core/Src/freertos.c ****   osTimerStart(Timer03Handle, MeasurePeriod);
 1185              		.loc 1 444 3 view .LVU184
 1186 04ea 4EF66021 		movw	r1, #60000
 1187 04ee 3B4B     		ldr	r3, .L78+72
 1188 04f0 1868     		ldr	r0, [r3]
 1189 04f2 FFF7FEFF 		bl	osTimerStart
 1190              	.LVL92:
ARM GAS  C:\Users\Vento\AppData\Local\Temp\ccEg74I3.s 			page 37


 445:Core/Src/freertos.c **** 
 1191              		.loc 1 445 3 view .LVU185
 1192 04f6 40F6B831 		movw	r1, #3000
 1193 04fa 394B     		ldr	r3, .L78+76
 1194 04fc 1868     		ldr	r0, [r3]
 1195 04fe FFF7FEFF 		bl	osTimerStart
 1196              	.LVL93:
 447:Core/Src/freertos.c **** 
 1197              		.loc 1 447 3 view .LVU186
 1198 0502 3848     		ldr	r0, .L78+80
 1199 0504 FFF7FEFF 		bl	HAL_TIM_Base_Start_IT
 1200              	.LVL94:
 1201 0508 A9E1     		b	.L65
 1202              	.L28:
 355:Core/Src/freertos.c **** 
 1203              		.loc 1 355 10 view .LVU187
 1204 050a 374B     		ldr	r3, .L78+84
 1205 050c 0022     		movs	r2, #0
 1206 050e 0292     		str	r2, [sp, #8]
 1207 0510 4FF47842 		mov	r2, #63488
 1208 0514 0192     		str	r2, [sp, #4]
 1209 0516 5A68     		ldr	r2, [r3, #4]
 1210 0518 0092     		str	r2, [sp]
 1211 051a 1B68     		ldr	r3, [r3]
 1212 051c 334A     		ldr	r2, .L78+88
 1213 051e 0A21     		movs	r1, #10
 1214 0520 5520     		movs	r0, #85
 1215 0522 FFF7FEFF 		bl	ILI9341_WriteString
 1216              	.LVL95:
 1217 0526 98E5     		b	.L29
 1218              	.L30:
 359:Core/Src/freertos.c **** 
 1219              		.loc 1 359 10 view .LVU188
 1220 0528 2F4B     		ldr	r3, .L78+84
 1221 052a 0022     		movs	r2, #0
 1222 052c 0292     		str	r2, [sp, #8]
 1223 052e 4FF47842 		mov	r2, #63488
 1224 0532 0192     		str	r2, [sp, #4]
 1225 0534 5A68     		ldr	r2, [r3, #4]
 1226 0536 0092     		str	r2, [sp]
 1227 0538 1B68     		ldr	r3, [r3]
 1228 053a 2C4A     		ldr	r2, .L78+88
 1229 053c 0A21     		movs	r1, #10
 1230 053e AC20     		movs	r0, #172
 1231 0540 FFF7FEFF 		bl	ILI9341_WriteString
 1232              	.LVL96:
 1233 0544 AAE5     		b	.L31
 1234              	.L32:
 363:Core/Src/freertos.c **** 
 1235              		.loc 1 363 10 view .LVU189
 1236 0546 284B     		ldr	r3, .L78+84
 1237 0548 0022     		movs	r2, #0
 1238 054a 0292     		str	r2, [sp, #8]
 1239 054c 4FF47842 		mov	r2, #63488
 1240 0550 0192     		str	r2, [sp, #4]
 1241 0552 5A68     		ldr	r2, [r3, #4]
 1242 0554 0092     		str	r2, [sp]
ARM GAS  C:\Users\Vento\AppData\Local\Temp\ccEg74I3.s 			page 38


 1243 0556 1B68     		ldr	r3, [r3]
 1244 0558 244A     		ldr	r2, .L78+88
 1245 055a 0A21     		movs	r1, #10
 1246 055c 4FF48370 		mov	r0, #262
 1247 0560 FFF7FEFF 		bl	ILI9341_WriteString
 1248              	.LVL97:
 1249 0564 BCE5     		b	.L33
 1250              	.L34:
 412:Core/Src/freertos.c ****     ILI9341_WriteString(176, 190, "OFF", Font_11x18, ILI9341_BLACK, ILI9341_RED);
 1251              		.loc 1 412 5 view .LVU190
 1252 0566 1148     		ldr	r0, .L78+24
 1253 0568 4FF47844 		mov	r4, #63488
 1254 056c 0094     		str	r4, [sp]
 1255 056e 0389     		ldrh	r3, [r0, #8]
 1256 0570 C288     		ldrh	r2, [r0, #6]
 1257 0572 4188     		ldrh	r1, [r0, #2]
 1258 0574 0088     		ldrh	r0, [r0]
 1259 0576 FFF7FEFF 		bl	ILI9341_FillRectangle
 1260              	.LVL98:
 413:Core/Src/freertos.c ****   }
 1261              		.loc 1 413 5 view .LVU191
 1262 057a 0D4B     		ldr	r3, .L78+28
 1263 057c 0294     		str	r4, [sp, #8]
 1264 057e 0022     		movs	r2, #0
 1265 0580 0192     		str	r2, [sp, #4]
 1266 0582 5A68     		ldr	r2, [r3, #4]
 1267 0584 0092     		str	r2, [sp]
 1268 0586 1B68     		ldr	r3, [r3]
 1269 0588 194A     		ldr	r2, .L78+92
 1270 058a BE21     		movs	r1, #190
 1271 058c B020     		movs	r0, #176
 1272 058e FFF7FEFF 		bl	ILI9341_WriteString
 1273              	.LVL99:
 1274 0592 4AE7     		b	.L35
 1275              	.L79:
 1276              		.align	2
 1277              	.L78:
 1278 0594 5C000000 		.word	.LC20
 1279 0598 60000000 		.word	.LC21
 1280 059c 00000000 		.word	.LANCHOR4
 1281 05a0 70000000 		.word	.LC22
 1282 05a4 00000000 		.word	.LANCHOR9
 1283 05a8 80000000 		.word	.LC23
 1284 05ac 00000000 		.word	.LANCHOR10
 1285 05b0 00000000 		.word	Font_11x18
 1286 05b4 88000000 		.word	.LC24
 1287 05b8 00000000 		.word	.LANCHOR6
 1288 05bc 90000000 		.word	.LC26
 1289 05c0 98000000 		.word	.LC27
 1290 05c4 A0000000 		.word	.LC28
 1291 05c8 000C0140 		.word	1073810432
 1292 05cc 00000000 		.word	.LANCHOR5
 1293 05d0 00000000 		.word	.LANCHOR11
 1294 05d4 00000000 		.word	.LANCHOR3
 1295 05d8 00000000 		.word	.LANCHOR12
 1296 05dc 00000000 		.word	.LANCHOR13
 1297 05e0 00000000 		.word	.LANCHOR14
ARM GAS  C:\Users\Vento\AppData\Local\Temp\ccEg74I3.s 			page 39


 1298 05e4 00000000 		.word	htim2
 1299 05e8 00000000 		.word	Font_7x10
 1300 05ec 0C000000 		.word	.LC9
 1301 05f0 8C000000 		.word	.LC25
 1302              	.L36:
 422:Core/Src/freertos.c ****     ILI9341_WriteString(253, 190, "AUTO", Font_11x18, ILI9341_BLACK, ILI9341_RED);
 1303              		.loc 1 422 5 view .LVU192
 1304 05f4 8048     		ldr	r0, .L80
 1305 05f6 4FF47844 		mov	r4, #63488
 1306 05fa 0094     		str	r4, [sp]
 1307 05fc 0389     		ldrh	r3, [r0, #8]
 1308 05fe C288     		ldrh	r2, [r0, #6]
 1309 0600 4188     		ldrh	r1, [r0, #2]
 1310 0602 0088     		ldrh	r0, [r0]
 1311 0604 FFF7FEFF 		bl	ILI9341_FillRectangle
 1312              	.LVL100:
 423:Core/Src/freertos.c ****   }
 1313              		.loc 1 423 5 view .LVU193
 1314 0608 7C4B     		ldr	r3, .L80+4
 1315 060a 0294     		str	r4, [sp, #8]
 1316 060c 0022     		movs	r2, #0
 1317 060e 0192     		str	r2, [sp, #4]
 1318 0610 5A68     		ldr	r2, [r3, #4]
 1319 0612 0092     		str	r2, [sp]
 1320 0614 1B68     		ldr	r3, [r3]
 1321 0616 7A4A     		ldr	r2, .L80+8
 1322 0618 BE21     		movs	r1, #190
 1323 061a FD20     		movs	r0, #253
 1324 061c FFF7FEFF 		bl	ILI9341_WriteString
 1325              	.LVL101:
 1326 0620 1EE7     		b	.L37
 1327              	.L67:
 431:Core/Src/freertos.c ****   else  {Adapter.state = false;}
 1328              		.loc 1 431 52 discriminator 1 view .LVU194
 431:Core/Src/freertos.c ****   else  {Adapter.state = false;}
 1329              		.loc 1 431 66 is_stmt 0 discriminator 1 view .LVU195
 1330 0622 784B     		ldr	r3, .L80+12
 1331 0624 0122     		movs	r2, #1
 1332 0626 1A70     		strb	r2, [r3]
 1333 0628 3CE7     		b	.L39
 1334              	.L68:
 433:Core/Src/freertos.c ****   else  {Batt.state = false;}
 1335              		.loc 1 433 52 is_stmt 1 discriminator 1 view .LVU196
 433:Core/Src/freertos.c ****   else  {Batt.state = false;}
 1336              		.loc 1 433 63 is_stmt 0 discriminator 1 view .LVU197
 1337 062a 774B     		ldr	r3, .L80+16
 1338 062c 0122     		movs	r2, #1
 1339 062e 1A70     		strb	r2, [r3]
 1340 0630 43E7     		b	.L41
 1341              	.L42:
 437:Core/Src/freertos.c ****   else if (!Adapter.state && Batt.state)  {PowerSate = BATTERY;}
 1342              		.loc 1 437 8 is_stmt 1 view .LVU198
 437:Core/Src/freertos.c ****   else if (!Adapter.state && Batt.state)  {PowerSate = BATTERY;}
 1343              		.loc 1 437 11 is_stmt 0 view .LVU199
 1344 0632 2BB1     		cbz	r3, .L44
 437:Core/Src/freertos.c ****   else if (!Adapter.state && Batt.state)  {PowerSate = BATTERY;}
 1345              		.loc 1 437 34 discriminator 1 view .LVU200
ARM GAS  C:\Users\Vento\AppData\Local\Temp\ccEg74I3.s 			page 40


 1346 0634 744A     		ldr	r2, .L80+16
 1347 0636 1278     		ldrb	r2, [r2]	@ zero_extendqisi2
 437:Core/Src/freertos.c ****   else if (!Adapter.state && Batt.state)  {PowerSate = BATTERY;}
 1348              		.loc 1 437 26 discriminator 1 view .LVU201
 1349 0638 12B9     		cbnz	r2, .L44
 437:Core/Src/freertos.c ****   else if (!Adapter.state && Batt.state)  {PowerSate = BATTERY;}
 1350              		.loc 1 437 44 is_stmt 1 discriminator 2 view .LVU202
 437:Core/Src/freertos.c ****   else if (!Adapter.state && Batt.state)  {PowerSate = BATTERY;}
 1351              		.loc 1 437 54 is_stmt 0 discriminator 2 view .LVU203
 1352 063a 744B     		ldr	r3, .L80+20
 1353 063c 1A70     		strb	r2, [r3]
 1354 063e 49E7     		b	.L43
 1355              	.L44:
 438:Core/Src/freertos.c **** 
 1356              		.loc 1 438 8 is_stmt 1 view .LVU204
 438:Core/Src/freertos.c **** 
 1357              		.loc 1 438 11 is_stmt 0 view .LVU205
 1358 0640 002B     		cmp	r3, #0
 1359 0642 7FF447AF 		bne	.L43
 438:Core/Src/freertos.c **** 
 1360              		.loc 1 438 34 discriminator 1 view .LVU206
 1361 0646 704B     		ldr	r3, .L80+16
 1362 0648 1B78     		ldrb	r3, [r3]	@ zero_extendqisi2
 438:Core/Src/freertos.c **** 
 1363              		.loc 1 438 27 discriminator 1 view .LVU207
 1364 064a 002B     		cmp	r3, #0
 1365 064c 3FF442AF 		beq	.L43
 438:Core/Src/freertos.c **** 
 1366              		.loc 1 438 44 is_stmt 1 discriminator 2 view .LVU208
 438:Core/Src/freertos.c **** 
 1367              		.loc 1 438 54 is_stmt 0 discriminator 2 view .LVU209
 1368 0650 6E4B     		ldr	r3, .L80+20
 1369 0652 0122     		movs	r2, #1
 1370 0654 1A70     		strb	r2, [r3]
 1371 0656 3DE7     		b	.L43
 1372              	.L69:
 440:Core/Src/freertos.c **** 
 1373              		.loc 1 440 30 is_stmt 1 discriminator 1 view .LVU210
 1374 0658 0122     		movs	r2, #1
 1375 065a 2021     		movs	r1, #32
 1376 065c 6C48     		ldr	r0, .L80+24
 1377 065e FFF7FEFF 		bl	HAL_GPIO_WritePin
 1378              	.LVL102:
 1379 0662 3CE7     		b	.L45
 1380              	.L46:
 458:Core/Src/freertos.c ****     if (SIM800_Status.GPRS)  {ILI9341_WriteString(172, 10, "OK ", Font_7x10, ILI9341_GREEN, ILI9341
 1381              		.loc 1 458 12 view .LVU211
 1382 0664 6B4B     		ldr	r3, .L80+28
 1383 0666 0022     		movs	r2, #0
 1384 0668 0292     		str	r2, [sp, #8]
 1385 066a 4FF47842 		mov	r2, #63488
 1386 066e 0192     		str	r2, [sp, #4]
 1387 0670 5A68     		ldr	r2, [r3, #4]
 1388 0672 0092     		str	r2, [sp]
 1389 0674 1B68     		ldr	r3, [r3]
 1390 0676 684A     		ldr	r2, .L80+32
 1391 0678 0A21     		movs	r1, #10
ARM GAS  C:\Users\Vento\AppData\Local\Temp\ccEg74I3.s 			page 41


 1392 067a 5520     		movs	r0, #85
 1393 067c FFF7FEFF 		bl	ILI9341_WriteString
 1394              	.LVL103:
 1395 0680 08E1     		b	.L47
 1396              	.L48:
 460:Core/Src/freertos.c ****     if (SIM800_Status.MQTT)  {ILI9341_WriteString(262, 10, "OK ", Font_7x10, ILI9341_GREEN, ILI9341
 1397              		.loc 1 460 12 view .LVU212
 1398 0682 644B     		ldr	r3, .L80+28
 1399 0684 0022     		movs	r2, #0
 1400 0686 0292     		str	r2, [sp, #8]
 1401 0688 4FF47842 		mov	r2, #63488
 1402 068c 0192     		str	r2, [sp, #4]
 1403 068e 5A68     		ldr	r2, [r3, #4]
 1404 0690 0092     		str	r2, [sp]
 1405 0692 1B68     		ldr	r3, [r3]
 1406 0694 604A     		ldr	r2, .L80+32
 1407 0696 0A21     		movs	r1, #10
 1408 0698 AC20     		movs	r0, #172
 1409 069a FFF7FEFF 		bl	ILI9341_WriteString
 1410              	.LVL104:
 1411 069e 0CE1     		b	.L49
 1412              	.L50:
 462:Core/Src/freertos.c ****     if (SIM800_Status.SENDING == true)
 1413              		.loc 1 462 12 view .LVU213
 1414 06a0 5C4B     		ldr	r3, .L80+28
 1415 06a2 0022     		movs	r2, #0
 1416 06a4 0292     		str	r2, [sp, #8]
 1417 06a6 4FF47842 		mov	r2, #63488
 1418 06aa 0192     		str	r2, [sp, #4]
 1419 06ac 5A68     		ldr	r2, [r3, #4]
 1420 06ae 0092     		str	r2, [sp]
 1421 06b0 1B68     		ldr	r3, [r3]
 1422 06b2 594A     		ldr	r2, .L80+32
 1423 06b4 0A21     		movs	r1, #10
 1424 06b6 4FF48370 		mov	r0, #262
 1425 06ba FFF7FEFF 		bl	ILI9341_WriteString
 1426              	.LVL105:
 1427 06be 10E1     		b	.L51
 1428              	.L52:
 469:Core/Src/freertos.c ****     ftoa(Node_1.Temperature, StrgTemp, 2);
 1429              		.loc 1 469 12 view .LVU214
 1430 06c0 4E4B     		ldr	r3, .L80+4
 1431 06c2 0022     		movs	r2, #0
 1432 06c4 0292     		str	r2, [sp, #8]
 1433 06c6 4FF6FF72 		movw	r2, #65535
 1434 06ca 0192     		str	r2, [sp, #4]
 1435 06cc 5A68     		ldr	r2, [r3, #4]
 1436 06ce 0092     		str	r2, [sp]
 1437 06d0 1B68     		ldr	r3, [r3]
 1438 06d2 524A     		ldr	r2, .L80+36
 1439 06d4 0A21     		movs	r1, #10
 1440 06d6 40F22D10 		movw	r0, #301
 1441 06da FFF7FEFF 		bl	ILI9341_WriteString
 1442              	.LVL106:
 1443 06de 21E1     		b	.L53
 1444              	.L54:
 491:Core/Src/freertos.c ****       ILI9341_WriteString(176, 190, "OFF", Font_11x18, ILI9341_BLACK, ILI9341_RED);
ARM GAS  C:\Users\Vento\AppData\Local\Temp\ccEg74I3.s 			page 42


 1445              		.loc 1 491 7 view .LVU215
 1446 06e0 4F48     		ldr	r0, .L80+40
 1447 06e2 4FF47844 		mov	r4, #63488
 1448 06e6 0094     		str	r4, [sp]
 1449 06e8 0389     		ldrh	r3, [r0, #8]
 1450 06ea C288     		ldrh	r2, [r0, #6]
 1451 06ec 4188     		ldrh	r1, [r0, #2]
 1452 06ee 0088     		ldrh	r0, [r0]
 1453 06f0 FFF7FEFF 		bl	ILI9341_FillRectangle
 1454              	.LVL107:
 492:Core/Src/freertos.c ****     }
 1455              		.loc 1 492 7 view .LVU216
 1456 06f4 414B     		ldr	r3, .L80+4
 1457 06f6 0294     		str	r4, [sp, #8]
 1458 06f8 0022     		movs	r2, #0
 1459 06fa 0192     		str	r2, [sp, #4]
 1460 06fc 5A68     		ldr	r2, [r3, #4]
 1461 06fe 0092     		str	r2, [sp]
 1462 0700 1B68     		ldr	r3, [r3]
 1463 0702 484A     		ldr	r2, .L80+44
 1464 0704 BE21     		movs	r1, #190
 1465 0706 B020     		movs	r0, #176
 1466 0708 FFF7FEFF 		bl	ILI9341_WriteString
 1467              	.LVL108:
 1468 070c AAE1     		b	.L55
 1469              	.L56:
 501:Core/Src/freertos.c ****       ILI9341_WriteString(253, 190, "AUTO", Font_11x18, ILI9341_BLACK, ILI9341_RED);
 1470              		.loc 1 501 7 view .LVU217
 1471 070e 3A48     		ldr	r0, .L80
 1472 0710 4FF47844 		mov	r4, #63488
 1473 0714 0094     		str	r4, [sp]
 1474 0716 0389     		ldrh	r3, [r0, #8]
 1475 0718 C288     		ldrh	r2, [r0, #6]
 1476 071a 4188     		ldrh	r1, [r0, #2]
 1477 071c 0088     		ldrh	r0, [r0]
 1478 071e FFF7FEFF 		bl	ILI9341_FillRectangle
 1479              	.LVL109:
 502:Core/Src/freertos.c ****     }
 1480              		.loc 1 502 7 view .LVU218
 1481 0722 364B     		ldr	r3, .L80+4
 1482 0724 0294     		str	r4, [sp, #8]
 1483 0726 0022     		movs	r2, #0
 1484 0728 0192     		str	r2, [sp, #4]
 1485 072a 5A68     		ldr	r2, [r3, #4]
 1486 072c 0092     		str	r2, [sp]
 1487 072e 1B68     		ldr	r3, [r3]
 1488 0730 334A     		ldr	r2, .L80+8
 1489 0732 BE21     		movs	r1, #190
 1490 0734 FD20     		movs	r0, #253
 1491 0736 FFF7FEFF 		bl	ILI9341_WriteString
 1492              	.LVL110:
 1493 073a AEE1     		b	.L57
 1494              	.L72:
 504:Core/Src/freertos.c ****     else if (PowerSate == BATTERY)  {ILI9341_WriteString(160, 220, "Battery", Font_11x18, ILI9341_R
 1495              		.loc 1 504 38 discriminator 1 view .LVU219
 1496 073c 2F4B     		ldr	r3, .L80+4
 1497 073e 0022     		movs	r2, #0
ARM GAS  C:\Users\Vento\AppData\Local\Temp\ccEg74I3.s 			page 43


 1498 0740 0292     		str	r2, [sp, #8]
 1499 0742 4FF4FC62 		mov	r2, #2016
 1500 0746 0192     		str	r2, [sp, #4]
 1501 0748 5A68     		ldr	r2, [r3, #4]
 1502 074a 0092     		str	r2, [sp]
 1503 074c 1B68     		ldr	r3, [r3]
 1504 074e 364A     		ldr	r2, .L80+48
 1505 0750 DC21     		movs	r1, #220
 1506 0752 A020     		movs	r0, #160
 1507 0754 FFF7FEFF 		bl	ILI9341_WriteString
 1508              	.LVL111:
 1509 0758 AAE1     		b	.L59
 1510              	.L73:
 505:Core/Src/freertos.c ****     else if (PowerSate == BOTH)     
 1511              		.loc 1 505 38 discriminator 1 view .LVU220
 1512 075a 284B     		ldr	r3, .L80+4
 1513 075c 0022     		movs	r2, #0
 1514 075e 0292     		str	r2, [sp, #8]
 1515 0760 4FF47842 		mov	r2, #63488
 1516 0764 0192     		str	r2, [sp, #4]
 1517 0766 5A68     		ldr	r2, [r3, #4]
 1518 0768 0092     		str	r2, [sp]
 1519 076a 1B68     		ldr	r3, [r3]
 1520 076c 2F4A     		ldr	r2, .L80+52
 1521 076e DC21     		movs	r1, #220
 1522 0770 A020     		movs	r0, #160
 1523 0772 FFF7FEFF 		bl	ILI9341_WriteString
 1524              	.LVL112:
 1525 0776 9BE1     		b	.L59
 1526              	.L74:
 508:Core/Src/freertos.c ****       else if (!Adapter.state && Batt.state) {ILI9341_WriteString(160, 220, "Battery", Font_11x18, 
 1527              		.loc 1 508 7 view .LVU221
 508:Core/Src/freertos.c ****       else if (!Adapter.state && Batt.state) {ILI9341_WriteString(160, 220, "Battery", Font_11x18, 
 1528              		.loc 1 508 18 is_stmt 0 view .LVU222
 1529 0778 224B     		ldr	r3, .L80+12
 1530 077a 1B78     		ldrb	r3, [r3]	@ zero_extendqisi2
 508:Core/Src/freertos.c ****       else if (!Adapter.state && Batt.state) {ILI9341_WriteString(160, 220, "Battery", Font_11x18, 
 1531              		.loc 1 508 10 view .LVU223
 1532 077c 13B1     		cbz	r3, .L61
 508:Core/Src/freertos.c ****       else if (!Adapter.state && Batt.state) {ILI9341_WriteString(160, 220, "Battery", Font_11x18, 
 1533              		.loc 1 508 32 discriminator 1 view .LVU224
 1534 077e 224A     		ldr	r2, .L80+16
 1535 0780 1278     		ldrb	r2, [r2]	@ zero_extendqisi2
 508:Core/Src/freertos.c ****       else if (!Adapter.state && Batt.state) {ILI9341_WriteString(160, 220, "Battery", Font_11x18, 
 1536              		.loc 1 508 25 discriminator 1 view .LVU225
 1537 0782 D2B9     		cbnz	r2, .L70
 1538              	.L61:
 509:Core/Src/freertos.c ****       else if (Adapter.state && !Batt.state) {ILI9341_WriteString(160, 220, "Adapter", Font_11x18, 
 1539              		.loc 1 509 12 is_stmt 1 view .LVU226
 509:Core/Src/freertos.c ****       else if (Adapter.state && !Batt.state) {ILI9341_WriteString(160, 220, "Adapter", Font_11x18, 
 1540              		.loc 1 509 15 is_stmt 0 view .LVU227
 1541 0784 13B9     		cbnz	r3, .L62
 509:Core/Src/freertos.c ****       else if (Adapter.state && !Batt.state) {ILI9341_WriteString(160, 220, "Adapter", Font_11x18, 
 1542              		.loc 1 509 38 discriminator 1 view .LVU228
 1543 0786 204A     		ldr	r2, .L80+16
 1544 0788 1278     		ldrb	r2, [r2]	@ zero_extendqisi2
 509:Core/Src/freertos.c ****       else if (Adapter.state && !Batt.state) {ILI9341_WriteString(160, 220, "Adapter", Font_11x18, 
ARM GAS  C:\Users\Vento\AppData\Local\Temp\ccEg74I3.s 			page 44


 1545              		.loc 1 509 31 discriminator 1 view .LVU229
 1546 078a 2ABB     		cbnz	r2, .L71
 1547              	.L62:
 510:Core/Src/freertos.c ****     }
 1548              		.loc 1 510 12 is_stmt 1 view .LVU230
 510:Core/Src/freertos.c ****     }
 1549              		.loc 1 510 15 is_stmt 0 view .LVU231
 1550 078c 002B     		cmp	r3, #0
 1551 078e 00F08F81 		beq	.L59
 510:Core/Src/freertos.c ****     }
 1552              		.loc 1 510 38 discriminator 1 view .LVU232
 1553 0792 1D4B     		ldr	r3, .L80+16
 1554 0794 1B78     		ldrb	r3, [r3]	@ zero_extendqisi2
 510:Core/Src/freertos.c ****     }
 1555              		.loc 1 510 30 discriminator 1 view .LVU233
 1556 0796 002B     		cmp	r3, #0
 1557 0798 40F08A81 		bne	.L59
 510:Core/Src/freertos.c ****     }
 1558              		.loc 1 510 47 is_stmt 1 discriminator 2 view .LVU234
 1559 079c 174B     		ldr	r3, .L80+4
 1560 079e 0022     		movs	r2, #0
 1561 07a0 0292     		str	r2, [sp, #8]
 1562 07a2 4FF6FF72 		movw	r2, #65535
 1563 07a6 0192     		str	r2, [sp, #4]
 1564 07a8 5A68     		ldr	r2, [r3, #4]
 1565 07aa 0092     		str	r2, [sp]
 1566 07ac 1B68     		ldr	r3, [r3]
 1567 07ae 1E4A     		ldr	r2, .L80+48
 1568 07b0 DC21     		movs	r1, #220
 1569 07b2 A020     		movs	r0, #160
 1570 07b4 FFF7FEFF 		bl	ILI9341_WriteString
 1571              	.LVL113:
 1572 07b8 7AE1     		b	.L59
 1573              	.L70:
 508:Core/Src/freertos.c ****       else if (!Adapter.state && Batt.state) {ILI9341_WriteString(160, 220, "Battery", Font_11x18, 
 1574              		.loc 1 508 41 discriminator 2 view .LVU235
 1575 07ba 104B     		ldr	r3, .L80+4
 1576 07bc 0022     		movs	r2, #0
 1577 07be 0292     		str	r2, [sp, #8]
 1578 07c0 4FF6FF72 		movw	r2, #65535
 1579 07c4 0192     		str	r2, [sp, #4]
 1580 07c6 5A68     		ldr	r2, [r3, #4]
 1581 07c8 0092     		str	r2, [sp]
 1582 07ca 1B68     		ldr	r3, [r3]
 1583 07cc 184A     		ldr	r2, .L80+56
 1584 07ce DC21     		movs	r1, #220
 1585 07d0 A020     		movs	r0, #160
 1586 07d2 FFF7FEFF 		bl	ILI9341_WriteString
 1587              	.LVL114:
 1588 07d6 6BE1     		b	.L59
 1589              	.L71:
 509:Core/Src/freertos.c ****       else if (Adapter.state && !Batt.state) {ILI9341_WriteString(160, 220, "Adapter", Font_11x18, 
 1590              		.loc 1 509 47 discriminator 2 view .LVU236
 1591 07d8 084B     		ldr	r3, .L80+4
 1592 07da 0022     		movs	r2, #0
 1593 07dc 0292     		str	r2, [sp, #8]
 1594 07de 4FF6FF72 		movw	r2, #65535
ARM GAS  C:\Users\Vento\AppData\Local\Temp\ccEg74I3.s 			page 45


 1595 07e2 0192     		str	r2, [sp, #4]
 1596 07e4 5A68     		ldr	r2, [r3, #4]
 1597 07e6 0092     		str	r2, [sp]
 1598 07e8 1B68     		ldr	r3, [r3]
 1599 07ea 104A     		ldr	r2, .L80+52
 1600 07ec DC21     		movs	r1, #220
 1601 07ee A020     		movs	r0, #160
 1602 07f0 FFF7FEFF 		bl	ILI9341_WriteString
 1603              	.LVL115:
 1604 07f4 5CE1     		b	.L59
 1605              	.L81:
 1606 07f6 00BF     		.align	2
 1607              	.L80:
 1608 07f8 00000000 		.word	.LANCHOR6
 1609 07fc 00000000 		.word	Font_11x18
 1610 0800 90000000 		.word	.LC26
 1611 0804 00000000 		.word	.LANCHOR5
 1612 0808 00000000 		.word	.LANCHOR11
 1613 080c 00000000 		.word	.LANCHOR3
 1614 0810 000C0140 		.word	1073810432
 1615 0814 00000000 		.word	Font_7x10
 1616 0818 0C000000 		.word	.LC9
 1617 081c A8000000 		.word	.LC30
 1618 0820 00000000 		.word	.LANCHOR10
 1619 0824 8C000000 		.word	.LC25
 1620 0828 00000000 		.word	.LC6
 1621 082c AC000000 		.word	.LC31
 1622 0830 B4000000 		.word	.LC32
 1623              	.L63:
 513:Core/Src/freertos.c ****     
 1624              		.loc 1 513 12 view .LVU237
 1625 0834 AB4B     		ldr	r3, .L82
 1626 0836 0022     		movs	r2, #0
 1627 0838 0292     		str	r2, [sp, #8]
 1628 083a 4FF6FF72 		movw	r2, #65535
 1629 083e 0192     		str	r2, [sp, #4]
 1630 0840 5A68     		ldr	r2, [r3, #4]
 1631 0842 0092     		str	r2, [sp]
 1632 0844 1B68     		ldr	r3, [r3]
 1633 0846 A84A     		ldr	r2, .L82+4
 1634 0848 DC21     		movs	r1, #220
 1635 084a FA20     		movs	r0, #250
 1636 084c FFF7FEFF 		bl	ILI9341_WriteString
 1637              	.LVL116:
 1638              	.L64:
 515:Core/Src/freertos.c ****     Time_Check.LCD_Display_Time[2] = Time_Check.LCD_Display_Time[1] - Time_Check.LCD_Display_Time[0
 1639              		.loc 1 515 5 view .LVU238
 515:Core/Src/freertos.c ****     Time_Check.LCD_Display_Time[2] = Time_Check.LCD_Display_Time[1] - Time_Check.LCD_Display_Time[0
 1640              		.loc 1 515 38 is_stmt 0 view .LVU239
 1641 0850 FFF7FEFF 		bl	HAL_GetTick
 1642              	.LVL117:
 515:Core/Src/freertos.c ****     Time_Check.LCD_Display_Time[2] = Time_Check.LCD_Display_Time[1] - Time_Check.LCD_Display_Time[0
 1643              		.loc 1 515 36 view .LVU240
 1644 0854 A54B     		ldr	r3, .L82+8
 1645 0856 1861     		str	r0, [r3, #16]
 516:Core/Src/freertos.c ****   }
 1646              		.loc 1 516 5 is_stmt 1 view .LVU241
ARM GAS  C:\Users\Vento\AppData\Local\Temp\ccEg74I3.s 			page 46


 516:Core/Src/freertos.c ****   }
 1647              		.loc 1 516 98 is_stmt 0 view .LVU242
 1648 0858 DA68     		ldr	r2, [r3, #12]
 516:Core/Src/freertos.c ****   }
 1649              		.loc 1 516 69 view .LVU243
 1650 085a 801A     		subs	r0, r0, r2
 516:Core/Src/freertos.c ****   }
 1651              		.loc 1 516 36 view .LVU244
 1652 085c 5861     		str	r0, [r3, #20]
 450:Core/Src/freertos.c ****   {
 1653              		.loc 1 450 8 is_stmt 1 view .LVU245
 1654              	.L65:
 450:Core/Src/freertos.c ****   {
 1655              		.loc 1 450 3 view .LVU246
 452:Core/Src/freertos.c **** 
 1656              		.loc 1 452 5 view .LVU247
 1657 085e A44B     		ldr	r3, .L82+12
 1658 0860 1868     		ldr	r0, [r3]
 1659 0862 FFF7FEFF 		bl	osThreadSuspend
 1660              	.LVL118:
 454:Core/Src/freertos.c **** 
 1661              		.loc 1 454 5 view .LVU248
 454:Core/Src/freertos.c **** 
 1662              		.loc 1 454 38 is_stmt 0 view .LVU249
 1663 0866 FFF7FEFF 		bl	HAL_GetTick
 1664              	.LVL119:
 454:Core/Src/freertos.c **** 
 1665              		.loc 1 454 36 view .LVU250
 1666 086a A04B     		ldr	r3, .L82+8
 1667 086c D860     		str	r0, [r3, #12]
 457:Core/Src/freertos.c ****     else  {ILI9341_WriteString(85, 10, "nOK", Font_7x10, ILI9341_RED, ILI9341_BLACK);}
 1668              		.loc 1 457 5 is_stmt 1 view .LVU251
 457:Core/Src/freertos.c ****     else  {ILI9341_WriteString(85, 10, "nOK", Font_7x10, ILI9341_RED, ILI9341_BLACK);}
 1669              		.loc 1 457 22 is_stmt 0 view .LVU252
 1670 086e A14B     		ldr	r3, .L82+16
 1671 0870 1B78     		ldrb	r3, [r3]	@ zero_extendqisi2
 457:Core/Src/freertos.c ****     else  {ILI9341_WriteString(85, 10, "nOK", Font_7x10, ILI9341_RED, ILI9341_BLACK);}
 1672              		.loc 1 457 8 view .LVU253
 1673 0872 002B     		cmp	r3, #0
 1674 0874 3FF4F6AE 		beq	.L46
 457:Core/Src/freertos.c ****     else  {ILI9341_WriteString(85, 10, "nOK", Font_7x10, ILI9341_RED, ILI9341_BLACK);}
 1675              		.loc 1 457 30 is_stmt 1 discriminator 1 view .LVU254
 1676 0878 9F4B     		ldr	r3, .L82+20
 1677 087a 0022     		movs	r2, #0
 1678 087c 0292     		str	r2, [sp, #8]
 1679 087e 4FF4FC62 		mov	r2, #2016
 1680 0882 0192     		str	r2, [sp, #4]
 1681 0884 5A68     		ldr	r2, [r3, #4]
 1682 0886 0092     		str	r2, [sp]
 1683 0888 1B68     		ldr	r3, [r3]
 1684 088a 9C4A     		ldr	r2, .L82+24
 1685 088c 0A21     		movs	r1, #10
 1686 088e 5520     		movs	r0, #85
 1687 0890 FFF7FEFF 		bl	ILI9341_WriteString
 1688              	.LVL120:
 1689              	.L47:
 459:Core/Src/freertos.c ****     else  {ILI9341_WriteString(172, 10, "nOK", Font_7x10, ILI9341_RED, ILI9341_BLACK);}
ARM GAS  C:\Users\Vento\AppData\Local\Temp\ccEg74I3.s 			page 47


 1690              		.loc 1 459 5 view .LVU255
 459:Core/Src/freertos.c ****     else  {ILI9341_WriteString(172, 10, "nOK", Font_7x10, ILI9341_RED, ILI9341_BLACK);}
 1691              		.loc 1 459 22 is_stmt 0 view .LVU256
 1692 0894 974B     		ldr	r3, .L82+16
 1693 0896 5B78     		ldrb	r3, [r3, #1]	@ zero_extendqisi2
 459:Core/Src/freertos.c ****     else  {ILI9341_WriteString(172, 10, "nOK", Font_7x10, ILI9341_RED, ILI9341_BLACK);}
 1694              		.loc 1 459 8 view .LVU257
 1695 0898 002B     		cmp	r3, #0
 1696 089a 3FF4F2AE 		beq	.L48
 459:Core/Src/freertos.c ****     else  {ILI9341_WriteString(172, 10, "nOK", Font_7x10, ILI9341_RED, ILI9341_BLACK);}
 1697              		.loc 1 459 31 is_stmt 1 discriminator 1 view .LVU258
 1698 089e 964B     		ldr	r3, .L82+20
 1699 08a0 0022     		movs	r2, #0
 1700 08a2 0292     		str	r2, [sp, #8]
 1701 08a4 4FF4FC62 		mov	r2, #2016
 1702 08a8 0192     		str	r2, [sp, #4]
 1703 08aa 5A68     		ldr	r2, [r3, #4]
 1704 08ac 0092     		str	r2, [sp]
 1705 08ae 1B68     		ldr	r3, [r3]
 1706 08b0 924A     		ldr	r2, .L82+24
 1707 08b2 0A21     		movs	r1, #10
 1708 08b4 AC20     		movs	r0, #172
 1709 08b6 FFF7FEFF 		bl	ILI9341_WriteString
 1710              	.LVL121:
 1711              	.L49:
 461:Core/Src/freertos.c ****     else  {ILI9341_WriteString(262, 10, "nOK", Font_7x10, ILI9341_RED, ILI9341_BLACK);}
 1712              		.loc 1 461 5 view .LVU259
 461:Core/Src/freertos.c ****     else  {ILI9341_WriteString(262, 10, "nOK", Font_7x10, ILI9341_RED, ILI9341_BLACK);}
 1713              		.loc 1 461 22 is_stmt 0 view .LVU260
 1714 08ba 8E4B     		ldr	r3, .L82+16
 1715 08bc 9B78     		ldrb	r3, [r3, #2]	@ zero_extendqisi2
 461:Core/Src/freertos.c ****     else  {ILI9341_WriteString(262, 10, "nOK", Font_7x10, ILI9341_RED, ILI9341_BLACK);}
 1716              		.loc 1 461 8 view .LVU261
 1717 08be 002B     		cmp	r3, #0
 1718 08c0 3FF4EEAE 		beq	.L50
 461:Core/Src/freertos.c ****     else  {ILI9341_WriteString(262, 10, "nOK", Font_7x10, ILI9341_RED, ILI9341_BLACK);}
 1719              		.loc 1 461 31 is_stmt 1 discriminator 1 view .LVU262
 1720 08c4 8C4B     		ldr	r3, .L82+20
 1721 08c6 0022     		movs	r2, #0
 1722 08c8 0292     		str	r2, [sp, #8]
 1723 08ca 4FF4FC62 		mov	r2, #2016
 1724 08ce 0192     		str	r2, [sp, #4]
 1725 08d0 5A68     		ldr	r2, [r3, #4]
 1726 08d2 0092     		str	r2, [sp]
 1727 08d4 1B68     		ldr	r3, [r3]
 1728 08d6 894A     		ldr	r2, .L82+24
 1729 08d8 0A21     		movs	r1, #10
 1730 08da 4FF48370 		mov	r0, #262
 1731 08de FFF7FEFF 		bl	ILI9341_WriteString
 1732              	.LVL122:
 1733              	.L51:
 463:Core/Src/freertos.c ****     {
 1734              		.loc 1 463 5 view .LVU263
 463:Core/Src/freertos.c ****     {
 1735              		.loc 1 463 22 is_stmt 0 view .LVU264
 1736 08e2 844B     		ldr	r3, .L82+16
 1737 08e4 DB78     		ldrb	r3, [r3, #3]	@ zero_extendqisi2
ARM GAS  C:\Users\Vento\AppData\Local\Temp\ccEg74I3.s 			page 48


 463:Core/Src/freertos.c ****     {
 1738              		.loc 1 463 8 view .LVU265
 1739 08e6 002B     		cmp	r3, #0
 1740 08e8 3FF4EAAE 		beq	.L52
 465:Core/Src/freertos.c ****       ILI9341_DrawLine(306, 10, 311, 15, ILI9341_WHITE);
 1741              		.loc 1 465 7 is_stmt 1 view .LVU266
 1742 08ec 4FF6FF74 		movw	r4, #65535
 1743 08f0 0094     		str	r4, [sp]
 1744 08f2 0F23     		movs	r3, #15
 1745 08f4 40F22D12 		movw	r2, #301
 1746 08f8 0A21     		movs	r1, #10
 1747 08fa 4FF49970 		mov	r0, #306
 1748 08fe FFF7FEFF 		bl	ILI9341_DrawLine
 1749              	.LVL123:
 466:Core/Src/freertos.c ****       ILI9341_DrawLine(306, 10, 306, 20, ILI9341_WHITE);
 1750              		.loc 1 466 7 view .LVU267
 1751 0902 0094     		str	r4, [sp]
 1752 0904 0F23     		movs	r3, #15
 1753 0906 40F23712 		movw	r2, #311
 1754 090a 0A21     		movs	r1, #10
 1755 090c 4FF49970 		mov	r0, #306
 1756 0910 FFF7FEFF 		bl	ILI9341_DrawLine
 1757              	.LVL124:
 467:Core/Src/freertos.c ****     }
 1758              		.loc 1 467 7 view .LVU268
 1759 0914 0094     		str	r4, [sp]
 1760 0916 1423     		movs	r3, #20
 1761 0918 4FF49972 		mov	r2, #306
 1762 091c 0A21     		movs	r1, #10
 1763 091e 1046     		mov	r0, r2
 1764 0920 FFF7FEFF 		bl	ILI9341_DrawLine
 1765              	.LVL125:
 1766              	.L53:
 470:Core/Src/freertos.c ****     ILI9341_WriteString(76, 55, StrgTemp, Font_11x18, ILI9341_ORANGE, ILI9341_BLACK);
 1767              		.loc 1 470 5 view .LVU269
 1768 0924 764E     		ldr	r6, .L82+28
 1769 0926 0222     		movs	r2, #2
 1770 0928 08A9     		add	r1, sp, #32
 1771 092a 3068     		ldr	r0, [r6]	@ float
 1772 092c FFF7FEFF 		bl	ftoa
 1773              	.LVL126:
 471:Core/Src/freertos.c ****     intToStr((int)Node_1.Humidity, StrgHumd, 2);
 1774              		.loc 1 471 5 view .LVU270
 1775 0930 6C4C     		ldr	r4, .L82
 1776 0932 0025     		movs	r5, #0
 1777 0934 0295     		str	r5, [sp, #8]
 1778 0936 4FF62058 		movw	r8, #64800
 1779 093a CDF80480 		str	r8, [sp, #4]
 1780 093e 6368     		ldr	r3, [r4, #4]
 1781 0940 0093     		str	r3, [sp]
 1782 0942 2368     		ldr	r3, [r4]
 1783 0944 08AA     		add	r2, sp, #32
 1784 0946 3721     		movs	r1, #55
 1785 0948 4C20     		movs	r0, #76
 1786 094a FFF7FEFF 		bl	ILI9341_WriteString
 1787              	.LVL127:
 472:Core/Src/freertos.c ****     ILI9341_WriteString(76, 80, StrgHumd, Font_11x18, ILI9341_LIGHTBLUE, ILI9341_BLACK);
ARM GAS  C:\Users\Vento\AppData\Local\Temp\ccEg74I3.s 			page 49


 1788              		.loc 1 472 5 view .LVU271
 1789 094e 7068     		ldr	r0, [r6, #4]	@ float
 1790 0950 FFF7FEFF 		bl	__aeabi_f2iz
 1791              	.LVL128:
 1792 0954 0222     		movs	r2, #2
 1793 0956 07A9     		add	r1, sp, #28
 1794 0958 FFF7FEFF 		bl	intToStr
 1795              	.LVL129:
 473:Core/Src/freertos.c ****     ftoa(Node_2.Temperature, StrgTemp, 2);
 1796              		.loc 1 473 5 view .LVU272
 1797 095c 0295     		str	r5, [sp, #8]
 1798 095e 47F67C56 		movw	r6, #32124
 1799 0962 0196     		str	r6, [sp, #4]
 1800 0964 6368     		ldr	r3, [r4, #4]
 1801 0966 0093     		str	r3, [sp]
 1802 0968 2368     		ldr	r3, [r4]
 1803 096a 07AA     		add	r2, sp, #28
 1804 096c 5021     		movs	r1, #80
 1805 096e 4C20     		movs	r0, #76
 1806 0970 FFF7FEFF 		bl	ILI9341_WriteString
 1807              	.LVL130:
 474:Core/Src/freertos.c ****     ILI9341_WriteString(236, 55, StrgTemp, Font_11x18, ILI9341_ORANGE, ILI9341_BLACK);
 1808              		.loc 1 474 5 view .LVU273
 1809 0974 634F     		ldr	r7, .L82+32
 1810 0976 0222     		movs	r2, #2
 1811 0978 08A9     		add	r1, sp, #32
 1812 097a 3868     		ldr	r0, [r7]	@ float
 1813 097c FFF7FEFF 		bl	ftoa
 1814              	.LVL131:
 475:Core/Src/freertos.c ****     intToStr((int)Node_2.Humidity, StrgHumd, 2);
 1815              		.loc 1 475 5 view .LVU274
 1816 0980 0295     		str	r5, [sp, #8]
 1817 0982 CDF80480 		str	r8, [sp, #4]
 1818 0986 6368     		ldr	r3, [r4, #4]
 1819 0988 0093     		str	r3, [sp]
 1820 098a 2368     		ldr	r3, [r4]
 1821 098c 08AA     		add	r2, sp, #32
 1822 098e 3721     		movs	r1, #55
 1823 0990 EC20     		movs	r0, #236
 1824 0992 FFF7FEFF 		bl	ILI9341_WriteString
 1825              	.LVL132:
 476:Core/Src/freertos.c ****     ILI9341_WriteString(236, 80, StrgHumd, Font_11x18, ILI9341_LIGHTBLUE, ILI9341_BLACK);
 1826              		.loc 1 476 5 view .LVU275
 1827 0996 7868     		ldr	r0, [r7, #4]	@ float
 1828 0998 FFF7FEFF 		bl	__aeabi_f2iz
 1829              	.LVL133:
 1830 099c 0222     		movs	r2, #2
 1831 099e 07A9     		add	r1, sp, #28
 1832 09a0 FFF7FEFF 		bl	intToStr
 1833              	.LVL134:
 477:Core/Src/freertos.c ****     ftoa(DirtHumd, StrgVolt, 3);
 1834              		.loc 1 477 5 view .LVU276
 1835 09a4 0295     		str	r5, [sp, #8]
 1836 09a6 0196     		str	r6, [sp, #4]
 1837 09a8 6368     		ldr	r3, [r4, #4]
 1838 09aa 0093     		str	r3, [sp]
 1839 09ac 2368     		ldr	r3, [r4]
ARM GAS  C:\Users\Vento\AppData\Local\Temp\ccEg74I3.s 			page 50


 1840 09ae 07AA     		add	r2, sp, #28
 1841 09b0 5021     		movs	r1, #80
 1842 09b2 EC20     		movs	r0, #236
 1843 09b4 FFF7FEFF 		bl	ILI9341_WriteString
 1844              	.LVL135:
 478:Core/Src/freertos.c ****     ILI9341_WriteString(209, 110, StrgVolt, Font_11x18, ILI9341_BROWN, ILI9341_BLACK);
 1845              		.loc 1 478 5 view .LVU277
 1846 09b8 0322     		movs	r2, #3
 1847 09ba 05A9     		add	r1, sp, #20
 1848 09bc 524B     		ldr	r3, .L82+36
 1849 09be 1868     		ldr	r0, [r3]	@ float
 1850 09c0 FFF7FEFF 		bl	ftoa
 1851              	.LVL136:
 479:Core/Src/freertos.c ****     ftoa(LipoBatt.voltage, StrgVolt, 3);
 1852              		.loc 1 479 5 view .LVU278
 1853 09c4 0295     		str	r5, [sp, #8]
 1854 09c6 4BF64043 		movw	r3, #48192
 1855 09ca 0193     		str	r3, [sp, #4]
 1856 09cc 6368     		ldr	r3, [r4, #4]
 1857 09ce 0093     		str	r3, [sp]
 1858 09d0 2368     		ldr	r3, [r4]
 1859 09d2 05AA     		add	r2, sp, #20
 1860 09d4 6E21     		movs	r1, #110
 1861 09d6 D120     		movs	r0, #209
 1862 09d8 FFF7FEFF 		bl	ILI9341_WriteString
 1863              	.LVL137:
 480:Core/Src/freertos.c ****     ILI9341_WriteString(209, 135, StrgVolt, Font_11x18, ILI9341_RED, ILI9341_BLACK);
 1864              		.loc 1 480 5 view .LVU279
 1865 09dc 4B4B     		ldr	r3, .L82+40
 1866 09de D3E90001 		ldrd	r0, [r3]
 1867 09e2 FFF7FEFF 		bl	__aeabi_d2f
 1868              	.LVL138:
 1869 09e6 0322     		movs	r2, #3
 1870 09e8 05A9     		add	r1, sp, #20
 1871 09ea FFF7FEFF 		bl	ftoa
 1872              	.LVL139:
 481:Core/Src/freertos.c ****     ftoa(Solar.voltage, StrgVolt, 3);
 1873              		.loc 1 481 5 view .LVU280
 1874 09ee 0295     		str	r5, [sp, #8]
 1875 09f0 4FF47843 		mov	r3, #63488
 1876 09f4 0193     		str	r3, [sp, #4]
 1877 09f6 6368     		ldr	r3, [r4, #4]
 1878 09f8 0093     		str	r3, [sp]
 1879 09fa 2368     		ldr	r3, [r4]
 1880 09fc 05AA     		add	r2, sp, #20
 1881 09fe 8721     		movs	r1, #135
 1882 0a00 D120     		movs	r0, #209
 1883 0a02 FFF7FEFF 		bl	ILI9341_WriteString
 1884              	.LVL140:
 482:Core/Src/freertos.c ****     ILI9341_WriteString(209, 160, StrgVolt, Font_11x18, ILI9341_YELLOW, ILI9341_BLACK);
 1885              		.loc 1 482 5 view .LVU281
 1886 0a06 424B     		ldr	r3, .L82+44
 1887 0a08 D3E90001 		ldrd	r0, [r3]
 1888 0a0c FFF7FEFF 		bl	__aeabi_d2f
 1889              	.LVL141:
 1890 0a10 0322     		movs	r2, #3
 1891 0a12 05A9     		add	r1, sp, #20
ARM GAS  C:\Users\Vento\AppData\Local\Temp\ccEg74I3.s 			page 51


 1892 0a14 FFF7FEFF 		bl	ftoa
 1893              	.LVL142:
 483:Core/Src/freertos.c ****     if (Button_1.state == true) 
 1894              		.loc 1 483 5 view .LVU282
 1895 0a18 0295     		str	r5, [sp, #8]
 1896 0a1a 4FF6E073 		movw	r3, #65504
 1897 0a1e 0193     		str	r3, [sp, #4]
 1898 0a20 6368     		ldr	r3, [r4, #4]
 1899 0a22 0093     		str	r3, [sp]
 1900 0a24 2368     		ldr	r3, [r4]
 1901 0a26 05AA     		add	r2, sp, #20
 1902 0a28 A021     		movs	r1, #160
 1903 0a2a D120     		movs	r0, #209
 1904 0a2c FFF7FEFF 		bl	ILI9341_WriteString
 1905              	.LVL143:
 484:Core/Src/freertos.c ****     {
 1906              		.loc 1 484 5 view .LVU283
 484:Core/Src/freertos.c ****     {
 1907              		.loc 1 484 17 is_stmt 0 view .LVU284
 1908 0a30 384B     		ldr	r3, .L82+48
 1909 0a32 1B7B     		ldrb	r3, [r3, #12]	@ zero_extendqisi2
 484:Core/Src/freertos.c ****     {
 1910              		.loc 1 484 8 view .LVU285
 1911 0a34 002B     		cmp	r3, #0
 1912 0a36 3FF453AE 		beq	.L54
 486:Core/Src/freertos.c ****       ILI9341_WriteString(180, 190, "ON", Font_11x18, ILI9341_BLACK, ILI9341_GREEN);
 1913              		.loc 1 486 7 is_stmt 1 view .LVU286
 1914 0a3a 3648     		ldr	r0, .L82+48
 1915 0a3c 4FF4FC64 		mov	r4, #2016
 1916 0a40 0094     		str	r4, [sp]
 1917 0a42 0389     		ldrh	r3, [r0, #8]
 1918 0a44 C288     		ldrh	r2, [r0, #6]
 1919 0a46 4188     		ldrh	r1, [r0, #2]
 1920 0a48 0088     		ldrh	r0, [r0]
 1921 0a4a FFF7FEFF 		bl	ILI9341_FillRectangle
 1922              	.LVL144:
 487:Core/Src/freertos.c ****     }
 1923              		.loc 1 487 7 view .LVU287
 1924 0a4e 254B     		ldr	r3, .L82
 1925 0a50 0294     		str	r4, [sp, #8]
 1926 0a52 0195     		str	r5, [sp, #4]
 1927 0a54 5A68     		ldr	r2, [r3, #4]
 1928 0a56 0092     		str	r2, [sp]
 1929 0a58 1B68     		ldr	r3, [r3]
 1930 0a5a 2F4A     		ldr	r2, .L82+52
 1931 0a5c BE21     		movs	r1, #190
 1932 0a5e B420     		movs	r0, #180
 1933 0a60 FFF7FEFF 		bl	ILI9341_WriteString
 1934              	.LVL145:
 1935              	.L55:
 494:Core/Src/freertos.c ****     {
 1936              		.loc 1 494 5 view .LVU288
 494:Core/Src/freertos.c ****     {
 1937              		.loc 1 494 17 is_stmt 0 view .LVU289
 1938 0a64 2D4B     		ldr	r3, .L82+56
 1939 0a66 1B7B     		ldrb	r3, [r3, #12]	@ zero_extendqisi2
 494:Core/Src/freertos.c ****     {
ARM GAS  C:\Users\Vento\AppData\Local\Temp\ccEg74I3.s 			page 52


 1940              		.loc 1 494 8 view .LVU290
 1941 0a68 002B     		cmp	r3, #0
 1942 0a6a 3FF450AE 		beq	.L56
 496:Core/Src/freertos.c ****       ILI9341_WriteString(253, 190, "AUTO", Font_11x18, ILI9341_BLACK, ILI9341_GREEN);
 1943              		.loc 1 496 7 is_stmt 1 view .LVU291
 1944 0a6e 2B48     		ldr	r0, .L82+56
 1945 0a70 4FF4FC64 		mov	r4, #2016
 1946 0a74 0094     		str	r4, [sp]
 1947 0a76 0389     		ldrh	r3, [r0, #8]
 1948 0a78 C288     		ldrh	r2, [r0, #6]
 1949 0a7a 4188     		ldrh	r1, [r0, #2]
 1950 0a7c 0088     		ldrh	r0, [r0]
 1951 0a7e FFF7FEFF 		bl	ILI9341_FillRectangle
 1952              	.LVL146:
 497:Core/Src/freertos.c ****     }
 1953              		.loc 1 497 7 view .LVU292
 1954 0a82 184B     		ldr	r3, .L82
 1955 0a84 0294     		str	r4, [sp, #8]
 1956 0a86 0022     		movs	r2, #0
 1957 0a88 0192     		str	r2, [sp, #4]
 1958 0a8a 5A68     		ldr	r2, [r3, #4]
 1959 0a8c 0092     		str	r2, [sp]
 1960 0a8e 1B68     		ldr	r3, [r3]
 1961 0a90 234A     		ldr	r2, .L82+60
 1962 0a92 BE21     		movs	r1, #190
 1963 0a94 FD20     		movs	r0, #253
 1964 0a96 FFF7FEFF 		bl	ILI9341_WriteString
 1965              	.LVL147:
 1966              	.L57:
 504:Core/Src/freertos.c ****     else if (PowerSate == BATTERY)  {ILI9341_WriteString(160, 220, "Battery", Font_11x18, ILI9341_R
 1967              		.loc 1 504 5 view .LVU293
 504:Core/Src/freertos.c ****     else if (PowerSate == BATTERY)  {ILI9341_WriteString(160, 220, "Battery", Font_11x18, ILI9341_R
 1968              		.loc 1 504 24 is_stmt 0 view .LVU294
 1969 0a9a 224B     		ldr	r3, .L82+64
 1970 0a9c 1B78     		ldrb	r3, [r3]	@ zero_extendqisi2
 504:Core/Src/freertos.c ****     else if (PowerSate == BATTERY)  {ILI9341_WriteString(160, 220, "Battery", Font_11x18, ILI9341_R
 1971              		.loc 1 504 13 view .LVU295
 1972 0a9e 002B     		cmp	r3, #0
 1973 0aa0 3FF44CAE 		beq	.L72
 505:Core/Src/freertos.c ****     else if (PowerSate == BOTH)     
 1974              		.loc 1 505 10 is_stmt 1 view .LVU296
 505:Core/Src/freertos.c ****     else if (PowerSate == BOTH)     
 1975              		.loc 1 505 13 is_stmt 0 view .LVU297
 1976 0aa4 012B     		cmp	r3, #1
 1977 0aa6 3FF458AE 		beq	.L73
 506:Core/Src/freertos.c ****     {
 1978              		.loc 1 506 10 is_stmt 1 view .LVU298
 506:Core/Src/freertos.c ****     {
 1979              		.loc 1 506 13 is_stmt 0 view .LVU299
 1980 0aaa 022B     		cmp	r3, #2
 1981 0aac 3FF464AE 		beq	.L74
 1982              	.L59:
 512:Core/Src/freertos.c ****     else  {ILI9341_WriteString(250, 220, "   ", Font_11x18, ILI9341_WHITE, ILI9341_BLACK);}
 1983              		.loc 1 512 5 is_stmt 1 view .LVU300
 512:Core/Src/freertos.c ****     else  {ILI9341_WriteString(250, 220, "   ", Font_11x18, ILI9341_WHITE, ILI9341_BLACK);}
 1984              		.loc 1 512 16 is_stmt 0 view .LVU301
 1985 0ab0 1D4B     		ldr	r3, .L82+68
ARM GAS  C:\Users\Vento\AppData\Local\Temp\ccEg74I3.s 			page 53


 1986 0ab2 1B78     		ldrb	r3, [r3]	@ zero_extendqisi2
 512:Core/Src/freertos.c ****     else  {ILI9341_WriteString(250, 220, "   ", Font_11x18, ILI9341_WHITE, ILI9341_BLACK);}
 1987              		.loc 1 512 8 view .LVU302
 1988 0ab4 002B     		cmp	r3, #0
 1989 0ab6 3FF4BDAE 		beq	.L63
 512:Core/Src/freertos.c ****     else  {ILI9341_WriteString(250, 220, "   ", Font_11x18, ILI9341_WHITE, ILI9341_BLACK);}
 1990              		.loc 1 512 30 discriminator 1 view .LVU303
 1991 0aba 1C4B     		ldr	r3, .L82+72
 1992 0abc 1B78     		ldrb	r3, [r3]	@ zero_extendqisi2
 512:Core/Src/freertos.c ****     else  {ILI9341_WriteString(250, 220, "   ", Font_11x18, ILI9341_WHITE, ILI9341_BLACK);}
 1993              		.loc 1 512 23 discriminator 1 view .LVU304
 1994 0abe 002B     		cmp	r3, #0
 1995 0ac0 3FF4B8AE 		beq	.L63
 512:Core/Src/freertos.c ****     else  {ILI9341_WriteString(250, 220, "   ", Font_11x18, ILI9341_WHITE, ILI9341_BLACK);}
 1996              		.loc 1 512 40 is_stmt 1 discriminator 2 view .LVU305
 1997 0ac4 074B     		ldr	r3, .L82
 1998 0ac6 4FF6FF72 		movw	r2, #65535
 1999 0aca 0292     		str	r2, [sp, #8]
 2000 0acc 0022     		movs	r2, #0
 2001 0ace 0192     		str	r2, [sp, #4]
 2002 0ad0 5A68     		ldr	r2, [r3, #4]
 2003 0ad2 0092     		str	r2, [sp]
 2004 0ad4 1B68     		ldr	r3, [r3]
 2005 0ad6 164A     		ldr	r2, .L82+76
 2006 0ad8 DC21     		movs	r1, #220
 2007 0ada FA20     		movs	r0, #250
 2008 0adc FFF7FEFF 		bl	ILI9341_WriteString
 2009              	.LVL148:
 2010 0ae0 B6E6     		b	.L64
 2011              	.L83:
 2012 0ae2 00BF     		.align	2
 2013              	.L82:
 2014 0ae4 00000000 		.word	Font_11x18
 2015 0ae8 C0000000 		.word	.LC34
 2016 0aec 00000000 		.word	.LANCHOR1
 2017 0af0 00000000 		.word	.LANCHOR15
 2018 0af4 00000000 		.word	SIM800_Status
 2019 0af8 00000000 		.word	Font_7x10
 2020 0afc A4000000 		.word	.LC29
 2021 0b00 00000000 		.word	.LANCHOR2
 2022 0b04 00000000 		.word	.LANCHOR8
 2023 0b08 00000000 		.word	.LANCHOR7
 2024 0b0c 00000000 		.word	.LANCHOR4
 2025 0b10 00000000 		.word	.LANCHOR9
 2026 0b14 00000000 		.word	.LANCHOR10
 2027 0b18 88000000 		.word	.LC24
 2028 0b1c 00000000 		.word	.LANCHOR6
 2029 0b20 90000000 		.word	.LC26
 2030 0b24 00000000 		.word	.LANCHOR3
 2031 0b28 00000000 		.word	.LANCHOR5
 2032 0b2c 00000000 		.word	.LANCHOR11
 2033 0b30 BC000000 		.word	.LC33
 2034              		.cfi_endproc
 2035              	.LFE71:
 2037              		.section	.text.LCD_TimeOut,"ax",%progbits
 2038              		.align	1
 2039              		.global	LCD_TimeOut
ARM GAS  C:\Users\Vento\AppData\Local\Temp\ccEg74I3.s 			page 54


 2040              		.syntax unified
 2041              		.thumb
 2042              		.thumb_func
 2043              		.fpu softvfp
 2045              	LCD_TimeOut:
 2046              	.LVL149:
 2047              	.LFB74:
 695:Core/Src/freertos.c **** 
 696:Core/Src/freertos.c **** /* LCD_TimeOut function */
 697:Core/Src/freertos.c **** void LCD_TimeOut(void *argument)
 698:Core/Src/freertos.c **** {
 2048              		.loc 1 698 1 view -0
 2049              		.cfi_startproc
 2050              		@ args = 0, pretend = 0, frame = 0
 2051              		@ frame_needed = 0, uses_anonymous_args = 0
 2052              		.loc 1 698 1 is_stmt 0 view .LVU307
 2053 0000 08B5     		push	{r3, lr}
 2054              	.LCFI7:
 2055              		.cfi_def_cfa_offset 8
 2056              		.cfi_offset 3, -8
 2057              		.cfi_offset 14, -4
 699:Core/Src/freertos.c ****   /* USER CODE BEGIN LCD_TimeOut */
 700:Core/Src/freertos.c **** //  ----------------- Turn off LCD, switch mode and suspend LCD task ---------------------------
 701:Core/Src/freertos.c ****   HAL_GPIO_WritePin(LCD_LED_GPIO_Port, LCD_LED_Pin, 0);
 2058              		.loc 1 701 3 is_stmt 1 view .LVU308
 2059 0002 0022     		movs	r2, #0
 2060 0004 0221     		movs	r1, #2
 2061 0006 0548     		ldr	r0, .L86
 2062              	.LVL150:
 2063              		.loc 1 701 3 is_stmt 0 view .LVU309
 2064 0008 FFF7FEFF 		bl	HAL_GPIO_WritePin
 2065              	.LVL151:
 702:Core/Src/freertos.c ****   DeviceState = SLEEPING;
 2066              		.loc 1 702 3 is_stmt 1 view .LVU310
 2067              		.loc 1 702 15 is_stmt 0 view .LVU311
 2068 000c 044B     		ldr	r3, .L86+4
 2069 000e 0022     		movs	r2, #0
 2070 0010 1A70     		strb	r2, [r3]
 703:Core/Src/freertos.c ****   osThreadSuspend(LCDHandle);
 2071              		.loc 1 703 3 is_stmt 1 view .LVU312
 2072 0012 044B     		ldr	r3, .L86+8
 2073 0014 1868     		ldr	r0, [r3]
 2074 0016 FFF7FEFF 		bl	osThreadSuspend
 2075              	.LVL152:
 704:Core/Src/freertos.c ****   /* USER CODE END LCD_TimeOut */
 705:Core/Src/freertos.c **** }
 2076              		.loc 1 705 1 is_stmt 0 view .LVU313
 2077 001a 08BD     		pop	{r3, pc}
 2078              	.L87:
 2079              		.align	2
 2080              	.L86:
 2081 001c 000C0140 		.word	1073810432
 2082 0020 00000000 		.word	.LANCHOR16
 2083 0024 00000000 		.word	.LANCHOR15
 2084              		.cfi_endproc
 2085              	.LFE74:
 2087              		.section	.text.IRQ_Task,"ax",%progbits
ARM GAS  C:\Users\Vento\AppData\Local\Temp\ccEg74I3.s 			page 55


 2088              		.align	1
 2089              		.global	IRQ_Task
 2090              		.syntax unified
 2091              		.thumb
 2092              		.thumb_func
 2093              		.fpu softvfp
 2095              	IRQ_Task:
 2096              	.LVL153:
 2097              	.LFB72:
 529:Core/Src/freertos.c ****   /* USER CODE BEGIN IRQ_Task */
 2098              		.loc 1 529 1 is_stmt 1 view -0
 2099              		.cfi_startproc
 2100              		@ args = 0, pretend = 0, frame = 8
 2101              		@ frame_needed = 0, uses_anonymous_args = 0
 529:Core/Src/freertos.c ****   /* USER CODE BEGIN IRQ_Task */
 2102              		.loc 1 529 1 is_stmt 0 view .LVU315
 2103 0000 70B5     		push	{r4, r5, r6, lr}
 2104              	.LCFI8:
 2105              		.cfi_def_cfa_offset 16
 2106              		.cfi_offset 4, -16
 2107              		.cfi_offset 5, -12
 2108              		.cfi_offset 6, -8
 2109              		.cfi_offset 14, -4
 2110 0002 86B0     		sub	sp, sp, #24
 2111              	.LCFI9:
 2112              		.cfi_def_cfa_offset 40
 531:Core/Src/freertos.c ****   uint32_t currentTick = 0, lastTick = 0;
 2113              		.loc 1 531 3 is_stmt 1 view .LVU316
 532:Core/Src/freertos.c **** 
 2114              		.loc 1 532 3 view .LVU317
 2115              	.LVL154:
 532:Core/Src/freertos.c **** 
 2116              		.loc 1 532 29 is_stmt 0 view .LVU318
 2117 0004 0025     		movs	r5, #0
 2118 0006 98E0     		b	.L90
 2119              	.LVL155:
 2120              	.L93:
 569:Core/Src/freertos.c ****               (x <= (Button_1.pos_y + Button_1.shape_h)) && 
 2121              		.loc 1 569 11 is_stmt 1 view .LVU319
 569:Core/Src/freertos.c ****               (x <= (Button_1.pos_y + Button_1.shape_h)) && 
 2122              		.loc 1 569 29 is_stmt 0 view .LVU320
 2123 0008 A34B     		ldr	r3, .L111
 2124 000a 5B88     		ldrh	r3, [r3, #2]
 569:Core/Src/freertos.c ****               (x <= (Button_1.pos_y + Button_1.shape_h)) && 
 2125              		.loc 1 569 18 view .LVU321
 2126 000c BDF81620 		ldrh	r2, [sp, #22]
 569:Core/Src/freertos.c ****               (x <= (Button_1.pos_y + Button_1.shape_h)) && 
 2127              		.loc 1 569 14 view .LVU322
 2128 0010 9342     		cmp	r3, r2
 2129 0012 35D8     		bhi	.L95
 570:Core/Src/freertos.c ****               (y >= Button_1.pos_x) && 
 2130              		.loc 1 570 47 discriminator 1 view .LVU323
 2131 0014 A049     		ldr	r1, .L111
 2132 0016 0989     		ldrh	r1, [r1, #8]
 570:Core/Src/freertos.c ****               (y >= Button_1.pos_x) && 
 2133              		.loc 1 570 37 discriminator 1 view .LVU324
 2134 0018 0B44     		add	r3, r3, r1
ARM GAS  C:\Users\Vento\AppData\Local\Temp\ccEg74I3.s 			page 56


 569:Core/Src/freertos.c ****               (x <= (Button_1.pos_y + Button_1.shape_h)) && 
 2135              		.loc 1 569 37 discriminator 1 view .LVU325
 2136 001a 9A42     		cmp	r2, r3
 2137 001c 30DC     		bgt	.L95
 571:Core/Src/freertos.c ****               (y <= (Button_1.pos_x + Button_1.shape_w)) &&
 2138              		.loc 1 571 29 view .LVU326
 2139 001e 9E4B     		ldr	r3, .L111
 2140 0020 1B88     		ldrh	r3, [r3]
 571:Core/Src/freertos.c ****               (y <= (Button_1.pos_x + Button_1.shape_w)) &&
 2141              		.loc 1 571 18 view .LVU327
 2142 0022 BDF81420 		ldrh	r2, [sp, #20]
 570:Core/Src/freertos.c ****               (y >= Button_1.pos_x) && 
 2143              		.loc 1 570 58 view .LVU328
 2144 0026 9342     		cmp	r3, r2
 2145 0028 2AD8     		bhi	.L95
 572:Core/Src/freertos.c ****               (PowerSate != BATTERY))
 2146              		.loc 1 572 47 view .LVU329
 2147 002a 9B49     		ldr	r1, .L111
 2148 002c C988     		ldrh	r1, [r1, #6]
 572:Core/Src/freertos.c ****               (PowerSate != BATTERY))
 2149              		.loc 1 572 37 view .LVU330
 2150 002e 0B44     		add	r3, r3, r1
 571:Core/Src/freertos.c ****               (y <= (Button_1.pos_x + Button_1.shape_w)) &&
 2151              		.loc 1 571 37 view .LVU331
 2152 0030 9A42     		cmp	r2, r3
 2153 0032 25DC     		bgt	.L95
 573:Core/Src/freertos.c ****           {
 2154              		.loc 1 573 26 view .LVU332
 2155 0034 994B     		ldr	r3, .L111+4
 2156 0036 1B78     		ldrb	r3, [r3]	@ zero_extendqisi2
 572:Core/Src/freertos.c ****               (PowerSate != BATTERY))
 2157              		.loc 1 572 58 view .LVU333
 2158 0038 012B     		cmp	r3, #1
 2159 003a 21D0     		beq	.L95
 575:Core/Src/freertos.c ****             {
 2160              		.loc 1 575 13 is_stmt 1 view .LVU334
 575:Core/Src/freertos.c ****             {
 2161              		.loc 1 575 25 is_stmt 0 view .LVU335
 2162 003c 964B     		ldr	r3, .L111
 2163 003e 1B7B     		ldrb	r3, [r3, #12]	@ zero_extendqisi2
 575:Core/Src/freertos.c ****             {
 2164              		.loc 1 575 16 view .LVU336
 2165 0040 002B     		cmp	r3, #0
 2166 0042 40F0D380 		bne	.L96
 577:Core/Src/freertos.c ****               HAL_GPIO_WritePin(Pump.GPIO_Port, Pump.Pin, 1);
 2167              		.loc 1 577 15 is_stmt 1 view .LVU337
 577:Core/Src/freertos.c ****               HAL_GPIO_WritePin(Pump.GPIO_Port, Pump.Pin, 1);
 2168              		.loc 1 577 30 is_stmt 0 view .LVU338
 2169 0046 0122     		movs	r2, #1
 2170 0048 934B     		ldr	r3, .L111
 2171 004a 1A73     		strb	r2, [r3, #12]
 578:Core/Src/freertos.c ****               ILI9341_FillRectangle(175, 185, 35, 26, ILI9341_GREEN);
 2172              		.loc 1 578 15 is_stmt 1 view .LVU339
 2173 004c 944B     		ldr	r3, .L111+8
 2174 004e 1989     		ldrh	r1, [r3, #8]
 2175 0050 5868     		ldr	r0, [r3, #4]
 2176 0052 FFF7FEFF 		bl	HAL_GPIO_WritePin
ARM GAS  C:\Users\Vento\AppData\Local\Temp\ccEg74I3.s 			page 57


 2177              	.LVL156:
 579:Core/Src/freertos.c ****               ILI9341_WriteString(180, 190, "ON", Font_11x18, ILI9341_BLACK, ILI9341_GREEN);
 2178              		.loc 1 579 15 view .LVU340
 2179 0056 4FF4FC65 		mov	r5, #2016
 2180 005a 0095     		str	r5, [sp]
 2181 005c 1A23     		movs	r3, #26
 2182 005e 2322     		movs	r2, #35
 2183 0060 B921     		movs	r1, #185
 2184 0062 AF20     		movs	r0, #175
 2185 0064 FFF7FEFF 		bl	ILI9341_FillRectangle
 2186              	.LVL157:
 580:Core/Src/freertos.c ****             }
 2187              		.loc 1 580 15 view .LVU341
 2188 0068 8E4B     		ldr	r3, .L111+12
 2189 006a 0295     		str	r5, [sp, #8]
 2190 006c 0022     		movs	r2, #0
 2191 006e 0192     		str	r2, [sp, #4]
 2192 0070 5A68     		ldr	r2, [r3, #4]
 2193 0072 0092     		str	r2, [sp]
 2194 0074 1B68     		ldr	r3, [r3]
 2195 0076 8C4A     		ldr	r2, .L111+16
 2196 0078 BE21     		movs	r1, #190
 2197 007a B420     		movs	r0, #180
 2198 007c FFF7FEFF 		bl	ILI9341_WriteString
 2199              	.LVL158:
 2200              	.L95:
 591:Core/Src/freertos.c ****               (x <= (Button_2.pos_y + Button_2.shape_h)) && 
 2201              		.loc 1 591 11 view .LVU342
 591:Core/Src/freertos.c ****               (x <= (Button_2.pos_y + Button_2.shape_h)) && 
 2202              		.loc 1 591 29 is_stmt 0 view .LVU343
 2203 0080 8A4B     		ldr	r3, .L111+20
 2204 0082 5988     		ldrh	r1, [r3, #2]
 591:Core/Src/freertos.c ****               (x <= (Button_2.pos_y + Button_2.shape_h)) && 
 2205              		.loc 1 591 18 view .LVU344
 2206 0084 BDF81620 		ldrh	r2, [sp, #22]
 591:Core/Src/freertos.c ****               (x <= (Button_2.pos_y + Button_2.shape_h)) && 
 2207              		.loc 1 591 14 view .LVU345
 2208 0088 9142     		cmp	r1, r2
 2209 008a 2AD8     		bhi	.L97
 592:Core/Src/freertos.c ****               (y >= Button_2.pos_x) && 
 2210              		.loc 1 592 47 discriminator 1 view .LVU346
 2211 008c 1B89     		ldrh	r3, [r3, #8]
 592:Core/Src/freertos.c ****               (y >= Button_2.pos_x) && 
 2212              		.loc 1 592 37 discriminator 1 view .LVU347
 2213 008e C818     		adds	r0, r1, r3
 591:Core/Src/freertos.c ****               (x <= (Button_2.pos_y + Button_2.shape_h)) && 
 2214              		.loc 1 591 37 discriminator 1 view .LVU348
 2215 0090 8242     		cmp	r2, r0
 2216 0092 26DC     		bgt	.L97
 593:Core/Src/freertos.c ****               (y <= (Button_2.pos_x + Button_2.shape_w)) &&
 2217              		.loc 1 593 29 view .LVU349
 2218 0094 854A     		ldr	r2, .L111+20
 2219 0096 1088     		ldrh	r0, [r2]
 593:Core/Src/freertos.c ****               (y <= (Button_2.pos_x + Button_2.shape_w)) &&
 2220              		.loc 1 593 18 view .LVU350
 2221 0098 BDF81450 		ldrh	r5, [sp, #20]
 592:Core/Src/freertos.c ****               (y >= Button_2.pos_x) && 
ARM GAS  C:\Users\Vento\AppData\Local\Temp\ccEg74I3.s 			page 58


 2222              		.loc 1 592 58 view .LVU351
 2223 009c A842     		cmp	r0, r5
 2224 009e 20D8     		bhi	.L97
 594:Core/Src/freertos.c ****               (PowerSate != BATTERY))
 2225              		.loc 1 594 47 view .LVU352
 2226 00a0 D288     		ldrh	r2, [r2, #6]
 594:Core/Src/freertos.c ****               (PowerSate != BATTERY))
 2227              		.loc 1 594 37 view .LVU353
 2228 00a2 8618     		adds	r6, r0, r2
 593:Core/Src/freertos.c ****               (y <= (Button_2.pos_x + Button_2.shape_w)) &&
 2229              		.loc 1 593 37 view .LVU354
 2230 00a4 B542     		cmp	r5, r6
 2231 00a6 1CDC     		bgt	.L97
 595:Core/Src/freertos.c ****           {
 2232              		.loc 1 595 26 view .LVU355
 2233 00a8 7C4D     		ldr	r5, .L111+4
 2234 00aa 2D78     		ldrb	r5, [r5]	@ zero_extendqisi2
 594:Core/Src/freertos.c ****               (PowerSate != BATTERY))
 2235              		.loc 1 594 58 view .LVU356
 2236 00ac 012D     		cmp	r5, #1
 2237 00ae 18D0     		beq	.L97
 597:Core/Src/freertos.c ****             {
 2238              		.loc 1 597 13 is_stmt 1 view .LVU357
 597:Core/Src/freertos.c ****             {
 2239              		.loc 1 597 25 is_stmt 0 view .LVU358
 2240 00b0 7E4D     		ldr	r5, .L111+20
 2241 00b2 2D7B     		ldrb	r5, [r5, #12]	@ zero_extendqisi2
 597:Core/Src/freertos.c ****             {
 2242              		.loc 1 597 16 view .LVU359
 2243 00b4 002D     		cmp	r5, #0
 2244 00b6 40F0B780 		bne	.L98
 599:Core/Src/freertos.c ****               ILI9341_FillRectangle(Button_2.pos_x, Button_2.pos_y, Button_2.shape_w, Button_2.shap
 2245              		.loc 1 599 15 is_stmt 1 view .LVU360
 599:Core/Src/freertos.c ****               ILI9341_FillRectangle(Button_2.pos_x, Button_2.pos_y, Button_2.shape_w, Button_2.shap
 2246              		.loc 1 599 30 is_stmt 0 view .LVU361
 2247 00ba 7C4D     		ldr	r5, .L111+20
 2248 00bc 0126     		movs	r6, #1
 2249 00be 2E73     		strb	r6, [r5, #12]
 600:Core/Src/freertos.c ****               ILI9341_WriteString(253, 190, "AUTO", Font_11x18, ILI9341_BLACK, ILI9341_GREEN);
 2250              		.loc 1 600 15 is_stmt 1 view .LVU362
 2251 00c0 4FF4FC65 		mov	r5, #2016
 2252 00c4 0095     		str	r5, [sp]
 2253 00c6 FFF7FEFF 		bl	ILI9341_FillRectangle
 2254              	.LVL159:
 601:Core/Src/freertos.c ****             }
 2255              		.loc 1 601 15 view .LVU363
 2256 00ca 764B     		ldr	r3, .L111+12
 2257 00cc 0295     		str	r5, [sp, #8]
 2258 00ce 0022     		movs	r2, #0
 2259 00d0 0192     		str	r2, [sp, #4]
 2260 00d2 5A68     		ldr	r2, [r3, #4]
 2261 00d4 0092     		str	r2, [sp]
 2262 00d6 1B68     		ldr	r3, [r3]
 2263 00d8 754A     		ldr	r2, .L111+24
 2264 00da BE21     		movs	r1, #190
 2265 00dc FD20     		movs	r0, #253
 2266 00de FFF7FEFF 		bl	ILI9341_WriteString
ARM GAS  C:\Users\Vento\AppData\Local\Temp\ccEg74I3.s 			page 59


 2267              	.LVL160:
 2268              	.L97:
 611:Core/Src/freertos.c ****           {
 2269              		.loc 1 611 11 view .LVU364
 611:Core/Src/freertos.c ****           {
 2270              		.loc 1 611 22 is_stmt 0 view .LVU365
 2271 00e2 744B     		ldr	r3, .L111+28
 2272 00e4 1B78     		ldrb	r3, [r3]	@ zero_extendqisi2
 611:Core/Src/freertos.c ****           {
 2273              		.loc 1 611 14 view .LVU366
 2274 00e6 D3B1     		cbz	r3, .L94
 611:Core/Src/freertos.c ****           {
 2275              		.loc 1 611 36 discriminator 1 view .LVU367
 2276 00e8 734B     		ldr	r3, .L111+32
 2277 00ea 1B78     		ldrb	r3, [r3]	@ zero_extendqisi2
 611:Core/Src/freertos.c ****           {
 2278              		.loc 1 611 29 discriminator 1 view .LVU368
 2279 00ec BBB1     		cbz	r3, .L94
 611:Core/Src/freertos.c ****           {
 2280              		.loc 1 611 49 discriminator 2 view .LVU369
 2281 00ee BDF81630 		ldrh	r3, [sp, #22]
 611:Core/Src/freertos.c ****           {
 2282              		.loc 1 611 43 discriminator 2 view .LVU370
 2283 00f2 DB2B     		cmp	r3, #219
 2284 00f4 13D9     		bls	.L94
 611:Core/Src/freertos.c ****           {
 2285              		.loc 1 611 57 discriminator 3 view .LVU371
 2286 00f6 EF2B     		cmp	r3, #239
 2287 00f8 11D8     		bhi	.L94
 611:Core/Src/freertos.c ****           {
 2288              		.loc 1 611 77 discriminator 4 view .LVU372
 2289 00fa BDF81430 		ldrh	r3, [sp, #20]
 611:Core/Src/freertos.c ****           {
 2290              		.loc 1 611 71 discriminator 4 view .LVU373
 2291 00fe F92B     		cmp	r3, #249
 2292 0100 0DD9     		bls	.L94
 611:Core/Src/freertos.c ****           {
 2293              		.loc 1 611 85 discriminator 5 view .LVU374
 2294 0102 B3F58E7F 		cmp	r3, #284
 2295 0106 0AD2     		bcs	.L94
 613:Core/Src/freertos.c ****             {
 2296              		.loc 1 613 13 is_stmt 1 view .LVU375
 613:Core/Src/freertos.c ****             {
 2297              		.loc 1 613 27 is_stmt 0 view .LVU376
 2298 0108 644B     		ldr	r3, .L111+4
 2299 010a 1B78     		ldrb	r3, [r3]	@ zero_extendqisi2
 613:Core/Src/freertos.c ****             {
 2300              		.loc 1 613 16 view .LVU377
 2301 010c 002B     		cmp	r3, #0
 2302 010e 00F09F80 		beq	.L105
 621:Core/Src/freertos.c ****             {
 2303              		.loc 1 621 18 is_stmt 1 view .LVU378
 621:Core/Src/freertos.c ****             {
 2304              		.loc 1 621 21 is_stmt 0 view .LVU379
 2305 0112 012B     		cmp	r3, #1
 2306 0114 00F0E680 		beq	.L106
 644:Core/Src/freertos.c ****             {
ARM GAS  C:\Users\Vento\AppData\Local\Temp\ccEg74I3.s 			page 60


 2307              		.loc 1 644 18 is_stmt 1 view .LVU380
 644:Core/Src/freertos.c ****             {
 2308              		.loc 1 644 21 is_stmt 0 view .LVU381
 2309 0118 022B     		cmp	r3, #2
 2310 011a 00F04981 		beq	.L107
 2311              	.L94:
 661:Core/Src/freertos.c ****         Time_Check.IRQ_Time[1] = HAL_GetTick();
 2312              		.loc 1 661 9 is_stmt 1 view .LVU382
 2313 011e 4EF66021 		movw	r1, #60000
 2314 0122 664B     		ldr	r3, .L111+36
 2315 0124 1868     		ldr	r0, [r3]
 2316 0126 FFF7FEFF 		bl	osTimerStart
 2317              	.LVL161:
 662:Core/Src/freertos.c ****         Time_Check.IRQ_Time[2] = Time_Check.IRQ_Time[1] - Time_Check.IRQ_Time[0];
 2318              		.loc 1 662 9 view .LVU383
 662:Core/Src/freertos.c ****         Time_Check.IRQ_Time[2] = Time_Check.IRQ_Time[1] - Time_Check.IRQ_Time[0];
 2319              		.loc 1 662 34 is_stmt 0 view .LVU384
 2320 012a FFF7FEFF 		bl	HAL_GetTick
 2321              	.LVL162:
 662:Core/Src/freertos.c ****         Time_Check.IRQ_Time[2] = Time_Check.IRQ_Time[1] - Time_Check.IRQ_Time[0];
 2322              		.loc 1 662 32 view .LVU385
 2323 012e 644B     		ldr	r3, .L111+40
 2324 0130 9862     		str	r0, [r3, #40]
 663:Core/Src/freertos.c ****       }
 2325              		.loc 1 663 9 is_stmt 1 view .LVU386
 663:Core/Src/freertos.c ****       }
 2326              		.loc 1 663 78 is_stmt 0 view .LVU387
 2327 0132 5A6A     		ldr	r2, [r3, #36]
 663:Core/Src/freertos.c ****       }
 2328              		.loc 1 663 57 view .LVU388
 2329 0134 801A     		subs	r0, r0, r2
 663:Core/Src/freertos.c ****       }
 2330              		.loc 1 663 32 view .LVU389
 2331 0136 D862     		str	r0, [r3, #44]
 547:Core/Src/freertos.c **** //  -------------------------------------- Get touch coordinates ----------------------------------
 2332              		.loc 1 547 18 view .LVU390
 2333 0138 2546     		mov	r5, r4
 2334              	.LVL163:
 2335              	.L90:
 535:Core/Src/freertos.c ****   {
 2336              		.loc 1 535 3 is_stmt 1 view .LVU391
 537:Core/Src/freertos.c **** //  ----------------------------------- Wait for event --------------------------------------------
 2337              		.loc 1 537 5 view .LVU392
 2338 013a 6420     		movs	r0, #100
 2339 013c FFF7FEFF 		bl	osDelay
 2340              	.LVL164:
 539:Core/Src/freertos.c ****     {
 2341              		.loc 1 539 5 view .LVU393
 539:Core/Src/freertos.c ****     {
 2342              		.loc 1 539 9 is_stmt 0 view .LVU394
 2343 0140 4FF0FF31 		mov	r1, #-1
 2344 0144 5F4B     		ldr	r3, .L111+44
 2345 0146 1868     		ldr	r0, [r3]
 2346 0148 FFF7FEFF 		bl	osSemaphoreAcquire
 2347              	.LVL165:
 539:Core/Src/freertos.c ****     {
 2348              		.loc 1 539 8 view .LVU395
ARM GAS  C:\Users\Vento\AppData\Local\Temp\ccEg74I3.s 			page 61


 2349 014c 0028     		cmp	r0, #0
 2350 014e F4D1     		bne	.L90
 541:Core/Src/freertos.c ****       osDelay(100);
 2351              		.loc 1 541 7 is_stmt 1 view .LVU396
 541:Core/Src/freertos.c ****       osDelay(100);
 2352              		.loc 1 541 32 is_stmt 0 view .LVU397
 2353 0150 FFF7FEFF 		bl	HAL_GetTick
 2354              	.LVL166:
 541:Core/Src/freertos.c ****       osDelay(100);
 2355              		.loc 1 541 30 view .LVU398
 2356 0154 5A4B     		ldr	r3, .L111+40
 2357 0156 5862     		str	r0, [r3, #36]
 542:Core/Src/freertos.c **** //  ---------------------------------------- Check for debounce -----------------------------------
 2358              		.loc 1 542 7 is_stmt 1 view .LVU399
 2359 0158 6420     		movs	r0, #100
 2360 015a FFF7FEFF 		bl	osDelay
 2361              	.LVL167:
 544:Core/Src/freertos.c ****       if (HAL_GPIO_ReadPin(T_IRQ_GPIO_Port, T_IRQ_Pin) == 0 && ((currentTick - lastTick) >= 500))
 2362              		.loc 1 544 7 view .LVU400
 544:Core/Src/freertos.c ****       if (HAL_GPIO_ReadPin(T_IRQ_GPIO_Port, T_IRQ_Pin) == 0 && ((currentTick - lastTick) >= 500))
 2363              		.loc 1 544 21 is_stmt 0 view .LVU401
 2364 015e FFF7FEFF 		bl	HAL_GetTick
 2365              	.LVL168:
 2366 0162 0446     		mov	r4, r0
 2367              	.LVL169:
 545:Core/Src/freertos.c ****       {
 2368              		.loc 1 545 7 is_stmt 1 view .LVU402
 545:Core/Src/freertos.c ****       {
 2369              		.loc 1 545 11 is_stmt 0 view .LVU403
 2370 0164 4FF48071 		mov	r1, #256
 2371 0168 5748     		ldr	r0, .L111+48
 2372              	.LVL170:
 545:Core/Src/freertos.c ****       {
 2373              		.loc 1 545 11 view .LVU404
 2374 016a FFF7FEFF 		bl	HAL_GPIO_ReadPin
 2375              	.LVL171:
 545:Core/Src/freertos.c ****       {
 2376              		.loc 1 545 10 view .LVU405
 2377 016e 0028     		cmp	r0, #0
 2378 0170 E3D1     		bne	.L90
 545:Core/Src/freertos.c ****       {
 2379              		.loc 1 545 78 discriminator 1 view .LVU406
 2380 0172 631B     		subs	r3, r4, r5
 545:Core/Src/freertos.c ****       {
 2381              		.loc 1 545 61 discriminator 1 view .LVU407
 2382 0174 B3F5FA7F 		cmp	r3, #500
 2383 0178 DFD3     		bcc	.L90
 547:Core/Src/freertos.c **** //  -------------------------------------- Get touch coordinates ----------------------------------
 2384              		.loc 1 547 9 is_stmt 1 view .LVU408
 2385              	.LVL172:
 549:Core/Src/freertos.c ****         hspi2.Init.BaudRatePrescaler = SPI_BAUDRATEPRESCALER_128;
 2386              		.loc 1 549 9 view .LVU409
 2387 017a 544D     		ldr	r5, .L111+52
 2388 017c 2846     		mov	r0, r5
 2389 017e FFF7FEFF 		bl	HAL_SPI_DeInit
 2390              	.LVL173:
 550:Core/Src/freertos.c ****         HAL_SPI_Init(&hspi2);
ARM GAS  C:\Users\Vento\AppData\Local\Temp\ccEg74I3.s 			page 62


 2391              		.loc 1 550 9 view .LVU410
 550:Core/Src/freertos.c ****         HAL_SPI_Init(&hspi2);
 2392              		.loc 1 550 38 is_stmt 0 view .LVU411
 2393 0182 3023     		movs	r3, #48
 2394 0184 EB61     		str	r3, [r5, #28]
 551:Core/Src/freertos.c ****         while(ILI9341_TouchGetCoordinates(&x, &y) != true);
 2395              		.loc 1 551 9 is_stmt 1 view .LVU412
 2396 0186 2846     		mov	r0, r5
 2397 0188 FFF7FEFF 		bl	HAL_SPI_Init
 2398              	.LVL174:
 552:Core/Src/freertos.c ****         HAL_SPI_DeInit(&hspi2);
 2399              		.loc 1 552 9 view .LVU413
 2400              	.L92:
 552:Core/Src/freertos.c ****         HAL_SPI_DeInit(&hspi2);
 2401              		.loc 1 552 59 discriminator 1 view .LVU414
 552:Core/Src/freertos.c ****         HAL_SPI_DeInit(&hspi2);
 2402              		.loc 1 552 14 discriminator 1 view .LVU415
 552:Core/Src/freertos.c ****         HAL_SPI_DeInit(&hspi2);
 2403              		.loc 1 552 15 is_stmt 0 discriminator 1 view .LVU416
 2404 018c 05A9     		add	r1, sp, #20
 2405 018e 0DF11600 		add	r0, sp, #22
 2406 0192 FFF7FEFF 		bl	ILI9341_TouchGetCoordinates
 2407              	.LVL175:
 552:Core/Src/freertos.c ****         HAL_SPI_DeInit(&hspi2);
 2408              		.loc 1 552 14 discriminator 1 view .LVU417
 2409 0196 0028     		cmp	r0, #0
 2410 0198 F8D0     		beq	.L92
 553:Core/Src/freertos.c ****         hspi2.Init.BaudRatePrescaler = SPI_BAUDRATEPRESCALER_2;
 2411              		.loc 1 553 9 is_stmt 1 view .LVU418
 2412 019a 4C4D     		ldr	r5, .L111+52
 2413 019c 2846     		mov	r0, r5
 2414 019e FFF7FEFF 		bl	HAL_SPI_DeInit
 2415              	.LVL176:
 554:Core/Src/freertos.c ****         HAL_SPI_Init(&hspi2);
 2416              		.loc 1 554 9 view .LVU419
 554:Core/Src/freertos.c ****         HAL_SPI_Init(&hspi2);
 2417              		.loc 1 554 38 is_stmt 0 view .LVU420
 2418 01a2 0026     		movs	r6, #0
 2419 01a4 EE61     		str	r6, [r5, #28]
 555:Core/Src/freertos.c **** //  ------------------------------------------ Reset TimeOut Timer --------------------------------
 2420              		.loc 1 555 9 is_stmt 1 view .LVU421
 2421 01a6 2846     		mov	r0, r5
 2422 01a8 FFF7FEFF 		bl	HAL_SPI_Init
 2423              	.LVL177:
 557:Core/Src/freertos.c ****         xTimerReset(Timer02Handle, 100);
 2424              		.loc 1 557 9 view .LVU422
 2425 01ac 434D     		ldr	r5, .L111+36
 2426 01ae 2868     		ldr	r0, [r5]
 2427 01b0 FFF7FEFF 		bl	osTimerStop
 2428              	.LVL178:
 558:Core/Src/freertos.c **** //  --------------------------------------- Handle touch ------------------------------------------
 2429              		.loc 1 558 9 view .LVU423
 2430 01b4 2D68     		ldr	r5, [r5]
 2431 01b6 FFF7FEFF 		bl	xTaskGetTickCount
 2432              	.LVL179:
 2433 01ba 0246     		mov	r2, r0
 2434 01bc 6423     		movs	r3, #100
ARM GAS  C:\Users\Vento\AppData\Local\Temp\ccEg74I3.s 			page 63


 2435 01be 0093     		str	r3, [sp]
 2436 01c0 3346     		mov	r3, r6
 2437 01c2 0221     		movs	r1, #2
 2438 01c4 2846     		mov	r0, r5
 2439 01c6 FFF7FEFF 		bl	xTimerGenericCommand
 2440              	.LVL180:
 560:Core/Src/freertos.c ****         {
 2441              		.loc 1 560 9 view .LVU424
 560:Core/Src/freertos.c ****         {
 2442              		.loc 1 560 25 is_stmt 0 view .LVU425
 2443 01ca 414B     		ldr	r3, .L111+56
 2444 01cc 1B78     		ldrb	r3, [r3]	@ zero_extendqisi2
 560:Core/Src/freertos.c ****         {
 2445              		.loc 1 560 12 view .LVU426
 2446 01ce 002B     		cmp	r3, #0
 2447 01d0 7FF41AAF 		bne	.L93
 563:Core/Src/freertos.c ****           HAL_GPIO_WritePin(LCD_LED_GPIO_Port, LCD_LED_Pin, 1);
 2448              		.loc 1 563 11 is_stmt 1 view .LVU427
 563:Core/Src/freertos.c ****           HAL_GPIO_WritePin(LCD_LED_GPIO_Port, LCD_LED_Pin, 1);
 2449              		.loc 1 563 23 is_stmt 0 view .LVU428
 2450 01d4 0122     		movs	r2, #1
 2451 01d6 3E4B     		ldr	r3, .L111+56
 2452 01d8 1A70     		strb	r2, [r3]
 564:Core/Src/freertos.c ****           osThreadResume(LCDHandle);
 2453              		.loc 1 564 11 is_stmt 1 view .LVU429
 2454 01da 0221     		movs	r1, #2
 2455 01dc 3D48     		ldr	r0, .L111+60
 2456 01de FFF7FEFF 		bl	HAL_GPIO_WritePin
 2457              	.LVL181:
 565:Core/Src/freertos.c ****         }
 2458              		.loc 1 565 11 view .LVU430
 2459 01e2 3D4B     		ldr	r3, .L111+64
 2460 01e4 1868     		ldr	r0, [r3]
 2461 01e6 FFF7FEFF 		bl	osThreadResume
 2462              	.LVL182:
 2463 01ea 98E7     		b	.L94
 2464              	.L96:
 584:Core/Src/freertos.c ****               HAL_GPIO_WritePin(Pump.GPIO_Port, Pump.Pin, 0);
 2465              		.loc 1 584 15 view .LVU431
 584:Core/Src/freertos.c ****               HAL_GPIO_WritePin(Pump.GPIO_Port, Pump.Pin, 0);
 2466              		.loc 1 584 30 is_stmt 0 view .LVU432
 2467 01ec 0025     		movs	r5, #0
 2468 01ee 2A4B     		ldr	r3, .L111
 2469 01f0 1D73     		strb	r5, [r3, #12]
 585:Core/Src/freertos.c ****               ILI9341_FillRectangle(175, 185, 35, 26, ILI9341_RED);
 2470              		.loc 1 585 15 is_stmt 1 view .LVU433
 2471 01f2 2B4B     		ldr	r3, .L111+8
 2472 01f4 2A46     		mov	r2, r5
 2473 01f6 1989     		ldrh	r1, [r3, #8]
 2474 01f8 5868     		ldr	r0, [r3, #4]
 2475 01fa FFF7FEFF 		bl	HAL_GPIO_WritePin
 2476              	.LVL183:
 586:Core/Src/freertos.c ****               ILI9341_WriteString(176, 190, "OFF", Font_11x18, ILI9341_BLACK, ILI9341_RED);
 2477              		.loc 1 586 15 view .LVU434
 2478 01fe 4FF47846 		mov	r6, #63488
 2479 0202 0096     		str	r6, [sp]
 2480 0204 1A23     		movs	r3, #26
ARM GAS  C:\Users\Vento\AppData\Local\Temp\ccEg74I3.s 			page 64


 2481 0206 2322     		movs	r2, #35
 2482 0208 B921     		movs	r1, #185
 2483 020a AF20     		movs	r0, #175
 2484 020c FFF7FEFF 		bl	ILI9341_FillRectangle
 2485              	.LVL184:
 587:Core/Src/freertos.c ****             }
 2486              		.loc 1 587 15 view .LVU435
 2487 0210 244B     		ldr	r3, .L111+12
 2488 0212 0296     		str	r6, [sp, #8]
 2489 0214 0195     		str	r5, [sp, #4]
 2490 0216 5A68     		ldr	r2, [r3, #4]
 2491 0218 0092     		str	r2, [sp]
 2492 021a 1B68     		ldr	r3, [r3]
 2493 021c 2F4A     		ldr	r2, .L111+68
 2494 021e BE21     		movs	r1, #190
 2495 0220 B020     		movs	r0, #176
 2496 0222 FFF7FEFF 		bl	ILI9341_WriteString
 2497              	.LVL185:
 2498 0226 2BE7     		b	.L95
 2499              	.L98:
 605:Core/Src/freertos.c ****               ILI9341_FillRectangle(Button_2.pos_x, Button_2.pos_y, Button_2.shape_w, Button_2.shap
 2500              		.loc 1 605 15 view .LVU436
 605:Core/Src/freertos.c ****               ILI9341_FillRectangle(Button_2.pos_x, Button_2.pos_y, Button_2.shape_w, Button_2.shap
 2501              		.loc 1 605 30 is_stmt 0 view .LVU437
 2502 0228 0025     		movs	r5, #0
 2503 022a 204E     		ldr	r6, .L111+20
 2504 022c 3573     		strb	r5, [r6, #12]
 606:Core/Src/freertos.c ****               ILI9341_WriteString(253, 190, "AUTO", Font_11x18, ILI9341_BLACK, ILI9341_RED);
 2505              		.loc 1 606 15 is_stmt 1 view .LVU438
 2506 022e 4FF47846 		mov	r6, #63488
 2507 0232 0096     		str	r6, [sp]
 2508 0234 FFF7FEFF 		bl	ILI9341_FillRectangle
 2509              	.LVL186:
 607:Core/Src/freertos.c ****             }
 2510              		.loc 1 607 15 view .LVU439
 2511 0238 1A4B     		ldr	r3, .L111+12
 2512 023a 0296     		str	r6, [sp, #8]
 2513 023c 0195     		str	r5, [sp, #4]
 2514 023e 5A68     		ldr	r2, [r3, #4]
 2515 0240 0092     		str	r2, [sp]
 2516 0242 1B68     		ldr	r3, [r3]
 2517 0244 1A4A     		ldr	r2, .L111+24
 2518 0246 BE21     		movs	r1, #190
 2519 0248 FD20     		movs	r0, #253
 2520 024a FFF7FEFF 		bl	ILI9341_WriteString
 2521              	.LVL187:
 2522 024e 48E7     		b	.L97
 2523              	.L105:
 615:Core/Src/freertos.c ****               HAL_GPIO_WritePin(GPIO_SIM_GPIO_Port, GPIO_SIM_Pin, 1);
 2524              		.loc 1 615 15 view .LVU440
 2525 0250 144B     		ldr	r3, .L111+12
 2526 0252 0026     		movs	r6, #0
 2527 0254 0296     		str	r6, [sp, #8]
 2528 0256 4FF6FF72 		movw	r2, #65535
 2529 025a 0192     		str	r2, [sp, #4]
 2530 025c 5A68     		ldr	r2, [r3, #4]
 2531 025e 0092     		str	r2, [sp]
ARM GAS  C:\Users\Vento\AppData\Local\Temp\ccEg74I3.s 			page 65


 2532 0260 1B68     		ldr	r3, [r3]
 2533 0262 1F4A     		ldr	r2, .L111+72
 2534 0264 DC21     		movs	r1, #220
 2535 0266 A020     		movs	r0, #160
 2536 0268 FFF7FEFF 		bl	ILI9341_WriteString
 2537              	.LVL188:
 616:Core/Src/freertos.c ****               HAL_GPIO_WritePin(GPIO_SOLAR_GPIO_Port, GPIO_SOLAR_Pin, 0);
 2538              		.loc 1 616 15 view .LVU441
 2539 026c 194D     		ldr	r5, .L111+60
 2540 026e 0122     		movs	r2, #1
 2541 0270 2021     		movs	r1, #32
 2542 0272 2846     		mov	r0, r5
 2543 0274 FFF7FEFF 		bl	HAL_GPIO_WritePin
 2544              	.LVL189:
 617:Core/Src/freertos.c ****               HAL_GPIO_WritePin(GPIO_ADAPTER_GPIO_Port, GPIO_ADAPTER_Pin, 0);
 2545              		.loc 1 617 15 view .LVU442
 2546 0278 3246     		mov	r2, r6
 2547 027a 4FF40071 		mov	r1, #512
 2548 027e 2846     		mov	r0, r5
 2549 0280 FFF7FEFF 		bl	HAL_GPIO_WritePin
 2550              	.LVL190:
 618:Core/Src/freertos.c ****               PowerSate = BOTH;
 2551              		.loc 1 618 15 view .LVU443
 2552 0284 3246     		mov	r2, r6
 2553 0286 4FF48071 		mov	r1, #256
 2554 028a 2846     		mov	r0, r5
 2555 028c FFF7FEFF 		bl	HAL_GPIO_WritePin
 2556              	.LVL191:
 619:Core/Src/freertos.c ****             }
 2557              		.loc 1 619 15 view .LVU444
 619:Core/Src/freertos.c ****             }
 2558              		.loc 1 619 25 is_stmt 0 view .LVU445
 2559 0290 024B     		ldr	r3, .L111+4
 2560 0292 0222     		movs	r2, #2
 2561 0294 1A70     		strb	r2, [r3]
 2562 0296 42E7     		b	.L94
 2563              	.L112:
 2564              		.align	2
 2565              	.L111:
 2566 0298 00000000 		.word	.LANCHOR10
 2567 029c 00000000 		.word	.LANCHOR3
 2568 02a0 00000000 		.word	.LANCHOR18
 2569 02a4 00000000 		.word	Font_11x18
 2570 02a8 88000000 		.word	.LC24
 2571 02ac 00000000 		.word	.LANCHOR6
 2572 02b0 90000000 		.word	.LC26
 2573 02b4 00000000 		.word	.LANCHOR5
 2574 02b8 00000000 		.word	.LANCHOR11
 2575 02bc 00000000 		.word	.LANCHOR13
 2576 02c0 00000000 		.word	.LANCHOR1
 2577 02c4 00000000 		.word	.LANCHOR17
 2578 02c8 00080140 		.word	1073809408
 2579 02cc 00000000 		.word	hspi2
 2580 02d0 00000000 		.word	.LANCHOR16
 2581 02d4 000C0140 		.word	1073810432
 2582 02d8 00000000 		.word	.LANCHOR15
 2583 02dc 8C000000 		.word	.LC25
ARM GAS  C:\Users\Vento\AppData\Local\Temp\ccEg74I3.s 			page 66


 2584 02e0 B4000000 		.word	.LC32
 2585              	.L106:
 623:Core/Src/freertos.c ****               {
 2586              		.loc 1 623 15 is_stmt 1 view .LVU446
 623:Core/Src/freertos.c ****               {
 2587              		.loc 1 623 27 is_stmt 0 view .LVU447
 2588 02e4 504B     		ldr	r3, .L113
 2589 02e6 1B7B     		ldrb	r3, [r3, #12]	@ zero_extendqisi2
 623:Core/Src/freertos.c ****               {
 2590              		.loc 1 623 18 view .LVU448
 2591 02e8 63BB     		cbnz	r3, .L108
 2592              	.L101:
 629:Core/Src/freertos.c ****               {
 2593              		.loc 1 629 15 is_stmt 1 view .LVU449
 629:Core/Src/freertos.c ****               {
 2594              		.loc 1 629 27 is_stmt 0 view .LVU450
 2595 02ea 504B     		ldr	r3, .L113+4
 2596 02ec 1B7B     		ldrb	r3, [r3, #12]	@ zero_extendqisi2
 629:Core/Src/freertos.c ****               {
 2597              		.loc 1 629 18 view .LVU451
 2598 02ee 002B     		cmp	r3, #0
 2599 02f0 40D1     		bne	.L109
 2600              	.L102:
 636:Core/Src/freertos.c ****               HAL_GPIO_WritePin(GPIO_SIM_GPIO_Port, GPIO_SIM_Pin, 1);
 2601              		.loc 1 636 15 is_stmt 1 view .LVU452
 2602 02f2 4F4B     		ldr	r3, .L113+8
 2603 02f4 0025     		movs	r5, #0
 2604 02f6 0295     		str	r5, [sp, #8]
 2605 02f8 4FF4FC62 		mov	r2, #2016
 2606 02fc 0192     		str	r2, [sp, #4]
 2607 02fe 5A68     		ldr	r2, [r3, #4]
 2608 0300 0092     		str	r2, [sp]
 2609 0302 1B68     		ldr	r3, [r3]
 2610 0304 4B4A     		ldr	r2, .L113+12
 2611 0306 DC21     		movs	r1, #220
 2612 0308 A020     		movs	r0, #160
 2613 030a FFF7FEFF 		bl	ILI9341_WriteString
 2614              	.LVL192:
 637:Core/Src/freertos.c ****               osDelay(100);
 2615              		.loc 1 637 15 view .LVU453
 2616 030e 4A4E     		ldr	r6, .L113+16
 2617 0310 0122     		movs	r2, #1
 2618 0312 2021     		movs	r1, #32
 2619 0314 3046     		mov	r0, r6
 2620 0316 FFF7FEFF 		bl	HAL_GPIO_WritePin
 2621              	.LVL193:
 638:Core/Src/freertos.c ****               HAL_GPIO_WritePin(GPIO_ADAPTER_GPIO_Port, GPIO_ADAPTER_Pin, 0);
 2622              		.loc 1 638 15 view .LVU454
 2623 031a 6420     		movs	r0, #100
 2624 031c FFF7FEFF 		bl	osDelay
 2625              	.LVL194:
 639:Core/Src/freertos.c ****               osDelay(100);
 2626              		.loc 1 639 15 view .LVU455
 2627 0320 2A46     		mov	r2, r5
 2628 0322 4FF48071 		mov	r1, #256
 2629 0326 3046     		mov	r0, r6
 2630 0328 FFF7FEFF 		bl	HAL_GPIO_WritePin
ARM GAS  C:\Users\Vento\AppData\Local\Temp\ccEg74I3.s 			page 67


 2631              	.LVL195:
 640:Core/Src/freertos.c ****               HAL_GPIO_WritePin(GPIO_SOLAR_GPIO_Port, GPIO_SOLAR_Pin, 1);
 2632              		.loc 1 640 15 view .LVU456
 2633 032c 6420     		movs	r0, #100
 2634 032e FFF7FEFF 		bl	osDelay
 2635              	.LVL196:
 641:Core/Src/freertos.c ****               PowerSate = ADAPTER;
 2636              		.loc 1 641 15 view .LVU457
 2637 0332 0122     		movs	r2, #1
 2638 0334 4FF40071 		mov	r1, #512
 2639 0338 3046     		mov	r0, r6
 2640 033a FFF7FEFF 		bl	HAL_GPIO_WritePin
 2641              	.LVL197:
 642:Core/Src/freertos.c ****             }
 2642              		.loc 1 642 15 view .LVU458
 642:Core/Src/freertos.c ****             }
 2643              		.loc 1 642 25 is_stmt 0 view .LVU459
 2644 033e 3F4B     		ldr	r3, .L113+20
 2645 0340 1D70     		strb	r5, [r3]
 2646 0342 ECE6     		b	.L94
 2647              	.L108:
 625:Core/Src/freertos.c ****                 ILI9341_FillRectangle(Button_2.pos_x, Button_2.pos_y, Button_2.shape_w, Button_2.sh
 2648              		.loc 1 625 17 is_stmt 1 view .LVU460
 625:Core/Src/freertos.c ****                 ILI9341_FillRectangle(Button_2.pos_x, Button_2.pos_y, Button_2.shape_w, Button_2.sh
 2649              		.loc 1 625 32 is_stmt 0 view .LVU461
 2650 0344 3848     		ldr	r0, .L113
 2651 0346 0025     		movs	r5, #0
 2652 0348 0573     		strb	r5, [r0, #12]
 626:Core/Src/freertos.c ****                 ILI9341_WriteString(253, 190, "AUTO", Font_11x18, ILI9341_BLACK, ILI9341_RED);
 2653              		.loc 1 626 17 is_stmt 1 view .LVU462
 2654 034a 4FF47846 		mov	r6, #63488
 2655 034e 0096     		str	r6, [sp]
 2656 0350 0389     		ldrh	r3, [r0, #8]
 2657 0352 C288     		ldrh	r2, [r0, #6]
 2658 0354 4188     		ldrh	r1, [r0, #2]
 2659 0356 0088     		ldrh	r0, [r0]
 2660 0358 FFF7FEFF 		bl	ILI9341_FillRectangle
 2661              	.LVL198:
 627:Core/Src/freertos.c ****               }
 2662              		.loc 1 627 17 view .LVU463
 2663 035c 344B     		ldr	r3, .L113+8
 2664 035e 0296     		str	r6, [sp, #8]
 2665 0360 0195     		str	r5, [sp, #4]
 2666 0362 5A68     		ldr	r2, [r3, #4]
 2667 0364 0092     		str	r2, [sp]
 2668 0366 1B68     		ldr	r3, [r3]
 2669 0368 354A     		ldr	r2, .L113+24
 2670 036a BE21     		movs	r1, #190
 2671 036c FD20     		movs	r0, #253
 2672 036e FFF7FEFF 		bl	ILI9341_WriteString
 2673              	.LVL199:
 2674 0372 BAE7     		b	.L101
 2675              	.L109:
 631:Core/Src/freertos.c ****                 HAL_GPIO_WritePin(Pump.GPIO_Port, Pump.Pin, 0);
 2676              		.loc 1 631 17 view .LVU464
 631:Core/Src/freertos.c ****                 HAL_GPIO_WritePin(Pump.GPIO_Port, Pump.Pin, 0);
 2677              		.loc 1 631 32 is_stmt 0 view .LVU465
ARM GAS  C:\Users\Vento\AppData\Local\Temp\ccEg74I3.s 			page 68


 2678 0374 0025     		movs	r5, #0
 2679 0376 2D4B     		ldr	r3, .L113+4
 2680 0378 1D73     		strb	r5, [r3, #12]
 632:Core/Src/freertos.c ****                 ILI9341_FillRectangle(175, 185, 35, 26, ILI9341_RED);
 2681              		.loc 1 632 17 is_stmt 1 view .LVU466
 2682 037a 324B     		ldr	r3, .L113+28
 2683 037c 2A46     		mov	r2, r5
 2684 037e 1989     		ldrh	r1, [r3, #8]
 2685 0380 5868     		ldr	r0, [r3, #4]
 2686 0382 FFF7FEFF 		bl	HAL_GPIO_WritePin
 2687              	.LVL200:
 633:Core/Src/freertos.c ****                 ILI9341_WriteString(176, 190, "OFF", Font_11x18, ILI9341_BLACK, ILI9341_RED);
 2688              		.loc 1 633 17 view .LVU467
 2689 0386 4FF47846 		mov	r6, #63488
 2690 038a 0096     		str	r6, [sp]
 2691 038c 1A23     		movs	r3, #26
 2692 038e 2322     		movs	r2, #35
 2693 0390 B921     		movs	r1, #185
 2694 0392 AF20     		movs	r0, #175
 2695 0394 FFF7FEFF 		bl	ILI9341_FillRectangle
 2696              	.LVL201:
 634:Core/Src/freertos.c ****               }
 2697              		.loc 1 634 17 view .LVU468
 2698 0398 254B     		ldr	r3, .L113+8
 2699 039a 0296     		str	r6, [sp, #8]
 2700 039c 0195     		str	r5, [sp, #4]
 2701 039e 5A68     		ldr	r2, [r3, #4]
 2702 03a0 0092     		str	r2, [sp]
 2703 03a2 1B68     		ldr	r3, [r3]
 2704 03a4 284A     		ldr	r2, .L113+32
 2705 03a6 BE21     		movs	r1, #190
 2706 03a8 B020     		movs	r0, #176
 2707 03aa FFF7FEFF 		bl	ILI9341_WriteString
 2708              	.LVL202:
 2709 03ae A0E7     		b	.L102
 2710              	.L107:
 646:Core/Src/freertos.c ****               HAL_GPIO_WritePin(GPIO_ADAPTER_GPIO_Port, GPIO_ADAPTER_Pin, 1);
 2711              		.loc 1 646 15 view .LVU469
 2712 03b0 1F4B     		ldr	r3, .L113+8
 2713 03b2 0026     		movs	r6, #0
 2714 03b4 0296     		str	r6, [sp, #8]
 2715 03b6 4FF47842 		mov	r2, #63488
 2716 03ba 0192     		str	r2, [sp, #4]
 2717 03bc 5A68     		ldr	r2, [r3, #4]
 2718 03be 0092     		str	r2, [sp]
 2719 03c0 1B68     		ldr	r3, [r3]
 2720 03c2 224A     		ldr	r2, .L113+36
 2721 03c4 DC21     		movs	r1, #220
 2722 03c6 A020     		movs	r0, #160
 2723 03c8 FFF7FEFF 		bl	ILI9341_WriteString
 2724              	.LVL203:
 647:Core/Src/freertos.c ****               osDelay(100);
 2725              		.loc 1 647 15 view .LVU470
 2726 03cc 1A4D     		ldr	r5, .L113+16
 2727 03ce 0122     		movs	r2, #1
 2728 03d0 4FF48071 		mov	r1, #256
 2729 03d4 2846     		mov	r0, r5
ARM GAS  C:\Users\Vento\AppData\Local\Temp\ccEg74I3.s 			page 69


 2730 03d6 FFF7FEFF 		bl	HAL_GPIO_WritePin
 2731              	.LVL204:
 648:Core/Src/freertos.c ****               HAL_GPIO_WritePin(GPIO_SIM_GPIO_Port, GPIO_SIM_Pin, 0);
 2732              		.loc 1 648 15 view .LVU471
 2733 03da 6420     		movs	r0, #100
 2734 03dc FFF7FEFF 		bl	osDelay
 2735              	.LVL205:
 649:Core/Src/freertos.c ****               if (Button_2.state == true)
 2736              		.loc 1 649 15 view .LVU472
 2737 03e0 3246     		mov	r2, r6
 2738 03e2 2021     		movs	r1, #32
 2739 03e4 2846     		mov	r0, r5
 2740 03e6 FFF7FEFF 		bl	HAL_GPIO_WritePin
 2741              	.LVL206:
 650:Core/Src/freertos.c ****               {
 2742              		.loc 1 650 15 view .LVU473
 650:Core/Src/freertos.c ****               {
 2743              		.loc 1 650 27 is_stmt 0 view .LVU474
 2744 03ea 0F4B     		ldr	r3, .L113
 2745 03ec 1B7B     		ldrb	r3, [r3, #12]	@ zero_extendqisi2
 650:Core/Src/freertos.c ****               {
 2746              		.loc 1 650 18 view .LVU475
 2747 03ee 1BB9     		cbnz	r3, .L110
 2748              	.L103:
 656:Core/Src/freertos.c ****             }
 2749              		.loc 1 656 15 is_stmt 1 view .LVU476
 656:Core/Src/freertos.c ****             }
 2750              		.loc 1 656 25 is_stmt 0 view .LVU477
 2751 03f0 124B     		ldr	r3, .L113+20
 2752 03f2 0122     		movs	r2, #1
 2753 03f4 1A70     		strb	r2, [r3]
 2754 03f6 92E6     		b	.L94
 2755              	.L110:
 652:Core/Src/freertos.c ****                 ILI9341_FillRectangle(Button_2.pos_x, Button_2.pos_y, Button_2.shape_w, Button_2.sh
 2756              		.loc 1 652 17 is_stmt 1 view .LVU478
 652:Core/Src/freertos.c ****                 ILI9341_FillRectangle(Button_2.pos_x, Button_2.pos_y, Button_2.shape_w, Button_2.sh
 2757              		.loc 1 652 32 is_stmt 0 view .LVU479
 2758 03f8 0B48     		ldr	r0, .L113
 2759 03fa 3546     		mov	r5, r6
 2760 03fc 0673     		strb	r6, [r0, #12]
 653:Core/Src/freertos.c ****                 ILI9341_WriteString(253, 190, "AUTO", Font_11x18, ILI9341_BLACK, ILI9341_RED);
 2761              		.loc 1 653 17 is_stmt 1 view .LVU480
 2762 03fe 4FF47846 		mov	r6, #63488
 2763 0402 0096     		str	r6, [sp]
 2764 0404 0389     		ldrh	r3, [r0, #8]
 2765 0406 C288     		ldrh	r2, [r0, #6]
 2766 0408 4188     		ldrh	r1, [r0, #2]
 2767 040a 0088     		ldrh	r0, [r0]
 2768 040c FFF7FEFF 		bl	ILI9341_FillRectangle
 2769              	.LVL207:
 654:Core/Src/freertos.c ****               }
 2770              		.loc 1 654 17 view .LVU481
 2771 0410 074B     		ldr	r3, .L113+8
 2772 0412 0296     		str	r6, [sp, #8]
 2773 0414 0195     		str	r5, [sp, #4]
 2774 0416 5A68     		ldr	r2, [r3, #4]
 2775 0418 0092     		str	r2, [sp]
ARM GAS  C:\Users\Vento\AppData\Local\Temp\ccEg74I3.s 			page 70


 2776 041a 1B68     		ldr	r3, [r3]
 2777 041c 084A     		ldr	r2, .L113+24
 2778 041e BE21     		movs	r1, #190
 2779 0420 FD20     		movs	r0, #253
 2780 0422 FFF7FEFF 		bl	ILI9341_WriteString
 2781              	.LVL208:
 2782 0426 E3E7     		b	.L103
 2783              	.L114:
 2784              		.align	2
 2785              	.L113:
 2786 0428 00000000 		.word	.LANCHOR6
 2787 042c 00000000 		.word	.LANCHOR10
 2788 0430 00000000 		.word	Font_11x18
 2789 0434 00000000 		.word	.LC6
 2790 0438 000C0140 		.word	1073810432
 2791 043c 00000000 		.word	.LANCHOR3
 2792 0440 90000000 		.word	.LC26
 2793 0444 00000000 		.word	.LANCHOR18
 2794 0448 8C000000 		.word	.LC25
 2795 044c AC000000 		.word	.LC31
 2796              		.cfi_endproc
 2797              	.LFE72:
 2799              		.section	.text.MX_FREERTOS_Init,"ax",%progbits
 2800              		.align	1
 2801              		.global	MX_FREERTOS_Init
 2802              		.syntax unified
 2803              		.thumb
 2804              		.thumb_func
 2805              		.fpu softvfp
 2807              	MX_FREERTOS_Init:
 2808              	.LFB69:
 211:Core/Src/freertos.c ****   /* USER CODE BEGIN Init */
 2809              		.loc 1 211 29 view -0
 2810              		.cfi_startproc
 2811              		@ args = 0, pretend = 0, frame = 0
 2812              		@ frame_needed = 0, uses_anonymous_args = 0
 2813 0000 08B5     		push	{r3, lr}
 2814              	.LCFI10:
 2815              		.cfi_def_cfa_offset 8
 2816              		.cfi_offset 3, -8
 2817              		.cfi_offset 14, -4
 222:Core/Src/freertos.c **** 
 2818              		.loc 1 222 3 view .LVU483
 222:Core/Src/freertos.c **** 
 2819              		.loc 1 222 23 is_stmt 0 view .LVU484
 2820 0002 1E4A     		ldr	r2, .L117
 2821 0004 0021     		movs	r1, #0
 2822 0006 0120     		movs	r0, #1
 2823 0008 FFF7FEFF 		bl	osSemaphoreNew
 2824              	.LVL209:
 222:Core/Src/freertos.c **** 
 2825              		.loc 1 222 21 view .LVU485
 2826 000c 1C4B     		ldr	r3, .L117+4
 2827 000e 1860     		str	r0, [r3]
 225:Core/Src/freertos.c **** 
 2828              		.loc 1 225 3 is_stmt 1 view .LVU486
 225:Core/Src/freertos.c **** 
ARM GAS  C:\Users\Vento\AppData\Local\Temp\ccEg74I3.s 			page 71


 2829              		.loc 1 225 23 is_stmt 0 view .LVU487
 2830 0010 1C4A     		ldr	r2, .L117+8
 2831 0012 0021     		movs	r1, #0
 2832 0014 0120     		movs	r0, #1
 2833 0016 FFF7FEFF 		bl	osSemaphoreNew
 2834              	.LVL210:
 225:Core/Src/freertos.c **** 
 2835              		.loc 1 225 21 view .LVU488
 2836 001a 1B4B     		ldr	r3, .L117+12
 2837 001c 1860     		str	r0, [r3]
 233:Core/Src/freertos.c **** 
 2838              		.loc 1 233 3 is_stmt 1 view .LVU489
 233:Core/Src/freertos.c **** 
 2839              		.loc 1 233 19 is_stmt 0 view .LVU490
 2840 001e 1B4B     		ldr	r3, .L117+16
 2841 0020 0022     		movs	r2, #0
 2842 0022 0121     		movs	r1, #1
 2843 0024 1A48     		ldr	r0, .L117+20
 2844 0026 FFF7FEFF 		bl	osTimerNew
 2845              	.LVL211:
 233:Core/Src/freertos.c **** 
 2846              		.loc 1 233 17 view .LVU491
 2847 002a 1A4B     		ldr	r3, .L117+24
 2848 002c 1860     		str	r0, [r3]
 236:Core/Src/freertos.c **** 
 2849              		.loc 1 236 3 is_stmt 1 view .LVU492
 236:Core/Src/freertos.c **** 
 2850              		.loc 1 236 19 is_stmt 0 view .LVU493
 2851 002e 1A4B     		ldr	r3, .L117+28
 2852 0030 0022     		movs	r2, #0
 2853 0032 1146     		mov	r1, r2
 2854 0034 1948     		ldr	r0, .L117+32
 2855 0036 FFF7FEFF 		bl	osTimerNew
 2856              	.LVL212:
 236:Core/Src/freertos.c **** 
 2857              		.loc 1 236 17 view .LVU494
 2858 003a 194B     		ldr	r3, .L117+36
 2859 003c 1860     		str	r0, [r3]
 239:Core/Src/freertos.c **** 
 2860              		.loc 1 239 3 is_stmt 1 view .LVU495
 239:Core/Src/freertos.c **** 
 2861              		.loc 1 239 19 is_stmt 0 view .LVU496
 2862 003e 194B     		ldr	r3, .L117+40
 2863 0040 0022     		movs	r2, #0
 2864 0042 0121     		movs	r1, #1
 2865 0044 1848     		ldr	r0, .L117+44
 2866 0046 FFF7FEFF 		bl	osTimerNew
 2867              	.LVL213:
 239:Core/Src/freertos.c **** 
 2868              		.loc 1 239 17 view .LVU497
 2869 004a 184B     		ldr	r3, .L117+48
 2870 004c 1860     		str	r0, [r3]
 251:Core/Src/freertos.c **** 
 2871              		.loc 1 251 3 is_stmt 1 view .LVU498
 251:Core/Src/freertos.c **** 
 2872              		.loc 1 251 15 is_stmt 0 view .LVU499
 2873 004e 184A     		ldr	r2, .L117+52
ARM GAS  C:\Users\Vento\AppData\Local\Temp\ccEg74I3.s 			page 72


 2874 0050 0021     		movs	r1, #0
 2875 0052 1848     		ldr	r0, .L117+56
 2876 0054 FFF7FEFF 		bl	osThreadNew
 2877              	.LVL214:
 251:Core/Src/freertos.c **** 
 2878              		.loc 1 251 13 view .LVU500
 2879 0058 174B     		ldr	r3, .L117+60
 2880 005a 1860     		str	r0, [r3]
 254:Core/Src/freertos.c **** 
 2881              		.loc 1 254 3 is_stmt 1 view .LVU501
 254:Core/Src/freertos.c **** 
 2882              		.loc 1 254 15 is_stmt 0 view .LVU502
 2883 005c 174A     		ldr	r2, .L117+64
 2884 005e 0021     		movs	r1, #0
 2885 0060 1748     		ldr	r0, .L117+68
 2886 0062 FFF7FEFF 		bl	osThreadNew
 2887              	.LVL215:
 254:Core/Src/freertos.c **** 
 2888              		.loc 1 254 13 view .LVU503
 2889 0066 174B     		ldr	r3, .L117+72
 2890 0068 1860     		str	r0, [r3]
 257:Core/Src/freertos.c **** 
 2891              		.loc 1 257 3 is_stmt 1 view .LVU504
 257:Core/Src/freertos.c **** 
 2892              		.loc 1 257 15 is_stmt 0 view .LVU505
 2893 006a 174A     		ldr	r2, .L117+76
 2894 006c 0021     		movs	r1, #0
 2895 006e 1748     		ldr	r0, .L117+80
 2896 0070 FFF7FEFF 		bl	osThreadNew
 2897              	.LVL216:
 257:Core/Src/freertos.c **** 
 2898              		.loc 1 257 13 view .LVU506
 2899 0074 164B     		ldr	r3, .L117+84
 2900 0076 1860     		str	r0, [r3]
 267:Core/Src/freertos.c **** 
 2901              		.loc 1 267 1 view .LVU507
 2902 0078 08BD     		pop	{r3, pc}
 2903              	.L118:
 2904 007a 00BF     		.align	2
 2905              	.L117:
 2906 007c 00000000 		.word	.LANCHOR19
 2907 0080 00000000 		.word	.LANCHOR17
 2908 0084 00000000 		.word	.LANCHOR20
 2909 0088 00000000 		.word	.LANCHOR0
 2910 008c 00000000 		.word	.LANCHOR21
 2911 0090 00000000 		.word	Action_Timer
 2912 0094 00000000 		.word	.LANCHOR12
 2913 0098 00000000 		.word	.LANCHOR22
 2914 009c 00000000 		.word	LCD_TimeOut
 2915 00a0 00000000 		.word	.LANCHOR13
 2916 00a4 00000000 		.word	.LANCHOR23
 2917 00a8 00000000 		.word	Measure_Timer
 2918 00ac 00000000 		.word	.LANCHOR14
 2919 00b0 00000000 		.word	.LANCHOR24
 2920 00b4 00000000 		.word	MQTT_Task
 2921 00b8 00000000 		.word	.LANCHOR25
 2922 00bc 00000000 		.word	.LANCHOR26
ARM GAS  C:\Users\Vento\AppData\Local\Temp\ccEg74I3.s 			page 73


 2923 00c0 00000000 		.word	Display_Task
 2924 00c4 00000000 		.word	.LANCHOR15
 2925 00c8 00000000 		.word	.LANCHOR27
 2926 00cc 00000000 		.word	IRQ_Task
 2927 00d0 00000000 		.word	.LANCHOR28
 2928              		.cfi_endproc
 2929              	.LFE69:
 2931              		.section	.text.HAL_GPIO_EXTI_Callback,"ax",%progbits
 2932              		.align	1
 2933              		.global	HAL_GPIO_EXTI_Callback
 2934              		.syntax unified
 2935              		.thumb
 2936              		.thumb_func
 2937              		.fpu softvfp
 2939              	HAL_GPIO_EXTI_Callback:
 2940              	.LVL217:
 2941              	.LFB76:
 706:Core/Src/freertos.c **** 
 707:Core/Src/freertos.c **** /* Measure_Timer function */
 708:Core/Src/freertos.c **** void Measure_Timer(void *argument)
 709:Core/Src/freertos.c **** {
 710:Core/Src/freertos.c ****   /* USER CODE BEGIN Measure_Timer */
 711:Core/Src/freertos.c **** 
 712:Core/Src/freertos.c ****   if (Deg < MAX_DEG)
 713:Core/Src/freertos.c ****   {
 714:Core/Src/freertos.c ****     PWM_Count = Deg2PWMCount(Deg);
 715:Core/Src/freertos.c ****     Deg += 3;
 716:Core/Src/freertos.c ****   }
 717:Core/Src/freertos.c **** 
 718:Core/Src/freertos.c ****   HAL_IWDG_Refresh(&hiwdg);
 719:Core/Src/freertos.c **** 
 720:Core/Src/freertos.c ****   Time_Check.Measure_Time[0] = HAL_GetTick();
 721:Core/Src/freertos.c **** 
 722:Core/Src/freertos.c ****   //----------------------------------------------------- I2C -------------------------------------
 723:Core/Src/freertos.c ****   uint8_t AHT10_TmpHum_Cmd[3] = {0xAC, 0x33, 0x00};
 724:Core/Src/freertos.c **** 
 725:Core/Src/freertos.c ****   MX_I2C1_Init();
 726:Core/Src/freertos.c **** 
 727:Core/Src/freertos.c ****   //----------------------------------------------------- I2C 1 -----------------------------------
 728:Core/Src/freertos.c ****   HAL_I2C_Master_Transmit_IT(&hi2c1, AHT10_ADDRESS_1, (uint8_t*)AHT10_TmpHum_Cmd, 3);
 729:Core/Src/freertos.c ****   osDelay(500);
 730:Core/Src/freertos.c ****   HAL_I2C_Master_Receive_IT(&hi2c1, AHT10_ADDRESS_1, (uint8_t*)Node_1.AHT10_RX_Data, 6);
 731:Core/Src/freertos.c ****   osDelay(200);
 732:Core/Src/freertos.c ****   if(~Node_1.AHT10_RX_Data[0] & 0x80)
 733:Core/Src/freertos.c ****   {
 734:Core/Src/freertos.c ****     /* Convert to Temperature in C */
 735:Core/Src/freertos.c ****     Node_1.AHT10_ADC_Raw = (((uint32_t)Node_1.AHT10_RX_Data[3] & 15) << 16) | ((uint32_t)Node_1.AHT
 736:Core/Src/freertos.c ****     Node_1.Temperature = (float)(Node_1.AHT10_ADC_Raw * 200.00 / 1048576.00) - 50.00;
 737:Core/Src/freertos.c **** 
 738:Core/Src/freertos.c ****     /* Convert to Relative Humidity in % */
 739:Core/Src/freertos.c ****     Node_1.AHT10_ADC_Raw = ((uint32_t)Node_1.AHT10_RX_Data[1] << 12) | ((uint32_t)Node_1.AHT10_RX_D
 740:Core/Src/freertos.c ****     Node_1.Humidity = (float)(Node_1.AHT10_ADC_Raw*100.00/1048576.00);
 741:Core/Src/freertos.c ****   }
 742:Core/Src/freertos.c ****   //----------------------------------------------------- I2C 2 -----------------------------------
 743:Core/Src/freertos.c ****   HAL_I2C_Master_Transmit_IT(&hi2c1, AHT10_ADDRESS_2, (uint8_t*)AHT10_TmpHum_Cmd, 3);
 744:Core/Src/freertos.c ****   osDelay(500);
 745:Core/Src/freertos.c ****   HAL_I2C_Master_Receive_IT(&hi2c1, AHT10_ADDRESS_2, (uint8_t*)Node_2.AHT10_RX_Data, 6);
ARM GAS  C:\Users\Vento\AppData\Local\Temp\ccEg74I3.s 			page 74


 746:Core/Src/freertos.c ****   osDelay(200);
 747:Core/Src/freertos.c ****   if(~Node_2.AHT10_RX_Data[0] & 0x80)
 748:Core/Src/freertos.c ****   {
 749:Core/Src/freertos.c ****     /* Convert to Temperature in C */
 750:Core/Src/freertos.c ****     Node_2.AHT10_ADC_Raw = (((uint32_t)Node_2.AHT10_RX_Data[3] & 15) << 16) | ((uint32_t)Node_2.AHT
 751:Core/Src/freertos.c ****     Node_2.Temperature = (float)(Node_2.AHT10_ADC_Raw * 200.00 / 1048576.00) - 50.00;
 752:Core/Src/freertos.c **** 
 753:Core/Src/freertos.c ****     /* Convert to Relative Humidity in % */
 754:Core/Src/freertos.c ****     Node_2.AHT10_ADC_Raw = ((uint32_t)Node_2.AHT10_RX_Data[1] << 12) | ((uint32_t)Node_2.AHT10_RX_D
 755:Core/Src/freertos.c ****     Node_2.Humidity = (float)(Node_2.AHT10_ADC_Raw * 100.00 / 1048576.00);
 756:Core/Src/freertos.c ****   }
 757:Core/Src/freertos.c ****   
 758:Core/Src/freertos.c ****   //-----------------------------------------------------ADC---------------------------------------
 759:Core/Src/freertos.c ****   ADC_ChannelConfTypeDef sConfig = {0};
 760:Core/Src/freertos.c ****   uint16_t ADC_t[3];
 761:Core/Src/freertos.c ****   //------------------------------------------Channel 0--------------------------------------------
 762:Core/Src/freertos.c **** 
 763:Core/Src/freertos.c ****   sConfig.Channel = ADC_CHANNEL_0;
 764:Core/Src/freertos.c ****   sConfig.Rank = ADC_REGULAR_RANK_1;
 765:Core/Src/freertos.c ****   sConfig.SamplingTime = ADC_SAMPLETIME_239CYCLES_5;
 766:Core/Src/freertos.c ****   if (HAL_ADC_ConfigChannel(&hadc1, &sConfig) != HAL_OK)
 767:Core/Src/freertos.c ****   {
 768:Core/Src/freertos.c ****     Error_Handler();
 769:Core/Src/freertos.c ****   }
 770:Core/Src/freertos.c ****   HAL_ADC_Start(&hadc1);
 771:Core/Src/freertos.c ****   HAL_ADC_PollForConversion(&hadc1, 100);
 772:Core/Src/freertos.c ****   ADC_t[0] = HAL_ADC_GetValue(&hadc1);
 773:Core/Src/freertos.c ****   DirtHumd = (ADC_t[0] * VCC / 4095) - 0.175;
 774:Core/Src/freertos.c ****   HAL_ADC_Stop(&hadc1);
 775:Core/Src/freertos.c ****   
 776:Core/Src/freertos.c ****   //-------------------------------------------Channel 1-------------------------------------------
 777:Core/Src/freertos.c ****   sConfig.Channel = ADC_CHANNEL_1;
 778:Core/Src/freertos.c ****   if (HAL_ADC_ConfigChannel(&hadc1, &sConfig) != HAL_OK)
 779:Core/Src/freertos.c ****   {
 780:Core/Src/freertos.c ****     Error_Handler();
 781:Core/Src/freertos.c ****   }
 782:Core/Src/freertos.c ****   HAL_ADC_Start(&hadc1);
 783:Core/Src/freertos.c ****   HAL_ADC_PollForConversion(&hadc1, 100);
 784:Core/Src/freertos.c ****   ADC_t[1] = HAL_ADC_GetValue(&hadc1);
 785:Core/Src/freertos.c ****   Solar.voltage = ADC_t[1] * VCC * 2.232 / 4095;
 786:Core/Src/freertos.c ****   HAL_ADC_Stop(&hadc1);
 787:Core/Src/freertos.c **** 
 788:Core/Src/freertos.c ****   //-------------------------------------------Channel 3-------------------------------------------
 789:Core/Src/freertos.c ****   sConfig.Channel = ADC_CHANNEL_3;
 790:Core/Src/freertos.c ****   if (HAL_ADC_ConfigChannel(&hadc1, &sConfig) != HAL_OK)
 791:Core/Src/freertos.c ****   {
 792:Core/Src/freertos.c ****     Error_Handler();
 793:Core/Src/freertos.c ****   }
 794:Core/Src/freertos.c ****   HAL_ADC_Start(&hadc1);
 795:Core/Src/freertos.c ****   HAL_ADC_PollForConversion(&hadc1, 100);
 796:Core/Src/freertos.c ****   ADC_t[2] = HAL_ADC_GetValue(&hadc1);
 797:Core/Src/freertos.c ****   LipoBatt.voltage = ADC_t[2] * VCC * 3.963 / 4095;
 798:Core/Src/freertos.c ****   HAL_ADC_Stop(&hadc1);
 799:Core/Src/freertos.c **** 
 800:Core/Src/freertos.c ****   //------------------------------------------------------- Check State ---------------------------
 801:Core/Src/freertos.c ****   
 802:Core/Src/freertos.c ****   if (HAL_GPIO_ReadPin(GPIOB, GPIO_PIN_4) == 1)   {Adapter.state = true;}
ARM GAS  C:\Users\Vento\AppData\Local\Temp\ccEg74I3.s 			page 75


 803:Core/Src/freertos.c ****   else  {Adapter.state = false;}
 804:Core/Src/freertos.c ****   if (HAL_GPIO_ReadPin(GPIOB, GPIO_PIN_12) == 1)  {Batt.state = true;}
 805:Core/Src/freertos.c ****   else  {Batt.state = false;}
 806:Core/Src/freertos.c **** 
 807:Core/Src/freertos.c ****   //------------------------------------------------ Done Measuring -> Print new data -------------
 808:Core/Src/freertos.c ****   Time_Check.Measure_Time[1] = HAL_GetTick();
 809:Core/Src/freertos.c ****   Time_Check.Measure_Time[2] = Time_Check.Measure_Time[1] - Time_Check.Measure_Time[0];
 810:Core/Src/freertos.c ****   osSemaphoreRelease(BinarySem02Handle);
 811:Core/Src/freertos.c ****   if (DeviceState == RUNNING)   {osThreadResume(LCDHandle);}
 812:Core/Src/freertos.c ****   
 813:Core/Src/freertos.c **** 
 814:Core/Src/freertos.c ****   /* USER CODE END Measure_Timer */
 815:Core/Src/freertos.c **** }
 816:Core/Src/freertos.c **** 
 817:Core/Src/freertos.c **** /* Private application code --------------------------------------------------*/
 818:Core/Src/freertos.c **** /* USER CODE BEGIN Application */
 819:Core/Src/freertos.c **** void HAL_GPIO_EXTI_Callback(uint16_t GPIO_Pin)
 820:Core/Src/freertos.c **** {
 2942              		.loc 1 820 1 is_stmt 1 view -0
 2943              		.cfi_startproc
 2944              		@ args = 0, pretend = 0, frame = 0
 2945              		@ frame_needed = 0, uses_anonymous_args = 0
 821:Core/Src/freertos.c ****   if (GPIO_Pin == T_IRQ_Pin)
 2946              		.loc 1 821 3 view .LVU509
 2947              		.loc 1 821 6 is_stmt 0 view .LVU510
 2948 0000 B0F5807F 		cmp	r0, #256
 2949 0004 00D0     		beq	.L125
 2950 0006 7047     		bx	lr
 2951              	.L125:
 820:Core/Src/freertos.c ****   if (GPIO_Pin == T_IRQ_Pin)
 2952              		.loc 1 820 1 view .LVU511
 2953 0008 08B5     		push	{r3, lr}
 2954              	.LCFI11:
 2955              		.cfi_def_cfa_offset 8
 2956              		.cfi_offset 3, -8
 2957              		.cfi_offset 14, -4
 822:Core/Src/freertos.c ****   {
 823:Core/Src/freertos.c ****     osSemaphoreRelease(BinarySem01Handle);
 2958              		.loc 1 823 5 is_stmt 1 view .LVU512
 2959 000a 024B     		ldr	r3, .L126
 2960 000c 1868     		ldr	r0, [r3]
 2961              	.LVL218:
 2962              		.loc 1 823 5 is_stmt 0 view .LVU513
 2963 000e FFF7FEFF 		bl	osSemaphoreRelease
 2964              	.LVL219:
 824:Core/Src/freertos.c ****   }
 825:Core/Src/freertos.c **** }
 2965              		.loc 1 825 1 view .LVU514
 2966 0012 08BD     		pop	{r3, pc}
 2967              	.L127:
 2968              		.align	2
 2969              	.L126:
 2970 0014 00000000 		.word	.LANCHOR17
 2971              		.cfi_endproc
 2972              	.LFE76:
 2974              		.section	.text.Deg2PWMCount,"ax",%progbits
 2975              		.align	1
ARM GAS  C:\Users\Vento\AppData\Local\Temp\ccEg74I3.s 			page 76


 2976              		.global	Deg2PWMCount
 2977              		.syntax unified
 2978              		.thumb
 2979              		.thumb_func
 2980              		.fpu softvfp
 2982              	Deg2PWMCount:
 2983              	.LVL220:
 2984              	.LFB77:
 826:Core/Src/freertos.c **** 
 827:Core/Src/freertos.c **** uint16_t Deg2PWMCount(uint8_t deg)
 828:Core/Src/freertos.c **** {
 2985              		.loc 1 828 1 is_stmt 1 view -0
 2986              		.cfi_startproc
 2987              		@ args = 0, pretend = 0, frame = 0
 2988              		@ frame_needed = 0, uses_anonymous_args = 0
 2989              		@ link register save eliminated.
 829:Core/Src/freertos.c ****   return (uint16_t)(50 + (uint16_t)((deg * (MAX_PWM_COUNT - MIN_PWM_COUNT)) / (MAX_DEG - MIN_DEG)))
 2990              		.loc 1 829 3 view .LVU516
 2991              		.loc 1 829 42 is_stmt 0 view .LVU517
 2992 0000 C823     		movs	r3, #200
 2993 0002 00FB03F3 		mul	r3, r0, r3
 2994              		.loc 1 829 77 view .LVU518
 2995 0006 0448     		ldr	r0, .L129
 2996              	.LVL221:
 2997              		.loc 1 829 77 view .LVU519
 2998 0008 80FB0320 		smull	r2, r0, r0, r3
 2999 000c 1844     		add	r0, r0, r3
 3000              		.loc 1 829 26 view .LVU520
 3001 000e C0F3CF10 		ubfx	r0, r0, #7, #16
 3002              		.loc 1 829 10 view .LVU521
 3003 0012 3230     		adds	r0, r0, #50
 830:Core/Src/freertos.c **** }
 3004              		.loc 1 830 1 view .LVU522
 3005 0014 80B2     		uxth	r0, r0
 3006 0016 7047     		bx	lr
 3007              	.L130:
 3008              		.align	2
 3009              	.L129:
 3010 0018 B7600BB6 		.word	-1240768329
 3011              		.cfi_endproc
 3012              	.LFE77:
 3014              		.global	__aeabi_ui2d
 3015              		.global	__aeabi_dmul
 3016              		.global	__aeabi_fsub
 3017              		.global	__aeabi_i2d
 3018              		.global	__aeabi_ddiv
 3019              		.global	__aeabi_dsub
 3020              		.section	.rodata.Measure_Timer.str1.4,"aMS",%progbits,1
 3021              		.align	2
 3022              	.LC35:
 3023 0000 AC3300   		.ascii	"\2543\000"
 3024              		.section	.text.Measure_Timer,"ax",%progbits
 3025              		.align	1
 3026              		.global	Measure_Timer
 3027              		.syntax unified
 3028              		.thumb
 3029              		.thumb_func
ARM GAS  C:\Users\Vento\AppData\Local\Temp\ccEg74I3.s 			page 77


 3030              		.fpu softvfp
 3032              	Measure_Timer:
 3033              	.LVL222:
 3034              	.LFB75:
 709:Core/Src/freertos.c ****   /* USER CODE BEGIN Measure_Timer */
 3035              		.loc 1 709 1 is_stmt 1 view -0
 3036              		.cfi_startproc
 3037              		@ args = 0, pretend = 0, frame = 24
 3038              		@ frame_needed = 0, uses_anonymous_args = 0
 709:Core/Src/freertos.c ****   /* USER CODE BEGIN Measure_Timer */
 3039              		.loc 1 709 1 is_stmt 0 view .LVU524
 3040 0000 30B5     		push	{r4, r5, lr}
 3041              	.LCFI12:
 3042              		.cfi_def_cfa_offset 12
 3043              		.cfi_offset 4, -12
 3044              		.cfi_offset 5, -8
 3045              		.cfi_offset 14, -4
 3046 0002 87B0     		sub	sp, sp, #28
 3047              	.LCFI13:
 3048              		.cfi_def_cfa_offset 40
 712:Core/Src/freertos.c ****   {
 3049              		.loc 1 712 3 is_stmt 1 view .LVU525
 712:Core/Src/freertos.c ****   {
 3050              		.loc 1 712 11 is_stmt 0 view .LVU526
 3051 0004 C24B     		ldr	r3, .L150+40
 3052 0006 1C78     		ldrb	r4, [r3]	@ zero_extendqisi2
 712:Core/Src/freertos.c ****   {
 3053              		.loc 1 712 6 view .LVU527
 3054 0008 B32C     		cmp	r4, #179
 3055 000a 07D8     		bhi	.L132
 714:Core/Src/freertos.c ****     Deg += 3;
 3056              		.loc 1 714 5 is_stmt 1 view .LVU528
 714:Core/Src/freertos.c ****     Deg += 3;
 3057              		.loc 1 714 17 is_stmt 0 view .LVU529
 3058 000c 2046     		mov	r0, r4
 3059              	.LVL223:
 714:Core/Src/freertos.c ****     Deg += 3;
 3060              		.loc 1 714 17 view .LVU530
 3061 000e FFF7FEFF 		bl	Deg2PWMCount
 3062              	.LVL224:
 714:Core/Src/freertos.c ****     Deg += 3;
 3063              		.loc 1 714 15 view .LVU531
 3064 0012 C04B     		ldr	r3, .L150+44
 3065 0014 1880     		strh	r0, [r3]	@ movhi
 715:Core/Src/freertos.c ****   }
 3066              		.loc 1 715 5 is_stmt 1 view .LVU532
 715:Core/Src/freertos.c ****   }
 3067              		.loc 1 715 9 is_stmt 0 view .LVU533
 3068 0016 0334     		adds	r4, r4, #3
 3069 0018 BD4B     		ldr	r3, .L150+40
 3070 001a 1C70     		strb	r4, [r3]
 3071              	.L132:
 718:Core/Src/freertos.c **** 
 3072              		.loc 1 718 3 is_stmt 1 view .LVU534
 3073 001c BE48     		ldr	r0, .L150+48
 3074 001e FFF7FEFF 		bl	HAL_IWDG_Refresh
 3075              	.LVL225:
ARM GAS  C:\Users\Vento\AppData\Local\Temp\ccEg74I3.s 			page 78


 720:Core/Src/freertos.c **** 
 3076              		.loc 1 720 3 view .LVU535
 720:Core/Src/freertos.c **** 
 3077              		.loc 1 720 32 is_stmt 0 view .LVU536
 3078 0022 FFF7FEFF 		bl	HAL_GetTick
 3079              	.LVL226:
 720:Core/Src/freertos.c **** 
 3080              		.loc 1 720 30 view .LVU537
 3081 0026 BD4B     		ldr	r3, .L150+52
 3082 0028 9861     		str	r0, [r3, #24]
 723:Core/Src/freertos.c **** 
 3083              		.loc 1 723 3 is_stmt 1 view .LVU538
 723:Core/Src/freertos.c **** 
 3084              		.loc 1 723 11 is_stmt 0 view .LVU539
 3085 002a BD4B     		ldr	r3, .L150+56
 3086 002c 1B68     		ldr	r3, [r3]
 3087 002e ADF81430 		strh	r3, [sp, #20]	@ movhi
 3088 0032 1B0C     		lsrs	r3, r3, #16
 3089 0034 8DF81630 		strb	r3, [sp, #22]
 725:Core/Src/freertos.c **** 
 3090              		.loc 1 725 3 is_stmt 1 view .LVU540
 3091 0038 FFF7FEFF 		bl	MX_I2C1_Init
 3092              	.LVL227:
 728:Core/Src/freertos.c ****   osDelay(500);
 3093              		.loc 1 728 3 view .LVU541
 3094 003c B94D     		ldr	r5, .L150+60
 3095 003e 0323     		movs	r3, #3
 3096 0040 05AA     		add	r2, sp, #20
 3097 0042 7021     		movs	r1, #112
 3098 0044 2846     		mov	r0, r5
 3099 0046 FFF7FEFF 		bl	HAL_I2C_Master_Transmit_IT
 3100              	.LVL228:
 729:Core/Src/freertos.c ****   HAL_I2C_Master_Receive_IT(&hi2c1, AHT10_ADDRESS_1, (uint8_t*)Node_1.AHT10_RX_Data, 6);
 3101              		.loc 1 729 3 view .LVU542
 3102 004a 4FF4FA70 		mov	r0, #500
 3103 004e FFF7FEFF 		bl	osDelay
 3104              	.LVL229:
 730:Core/Src/freertos.c ****   osDelay(200);
 3105              		.loc 1 730 3 view .LVU543
 3106 0052 B54C     		ldr	r4, .L150+64
 3107 0054 0623     		movs	r3, #6
 3108 0056 04F10802 		add	r2, r4, #8
 3109 005a 7021     		movs	r1, #112
 3110 005c 2846     		mov	r0, r5
 3111 005e FFF7FEFF 		bl	HAL_I2C_Master_Receive_IT
 3112              	.LVL230:
 731:Core/Src/freertos.c ****   if(~Node_1.AHT10_RX_Data[0] & 0x80)
 3113              		.loc 1 731 3 view .LVU544
 3114 0062 C820     		movs	r0, #200
 3115 0064 FFF7FEFF 		bl	osDelay
 3116              	.LVL231:
 732:Core/Src/freertos.c ****   {
 3117              		.loc 1 732 3 view .LVU545
 732:Core/Src/freertos.c ****   {
 3118              		.loc 1 732 6 is_stmt 0 view .LVU546
 3119 0068 94F90830 		ldrsb	r3, [r4, #8]
 732:Core/Src/freertos.c ****   {
ARM GAS  C:\Users\Vento\AppData\Local\Temp\ccEg74I3.s 			page 79


 3120              		.loc 1 732 5 view .LVU547
 3121 006c 002B     		cmp	r3, #0
 3122 006e 2EDB     		blt	.L133
 735:Core/Src/freertos.c ****     Node_1.Temperature = (float)(Node_1.AHT10_ADC_Raw * 200.00 / 1048576.00) - 50.00;
 3123              		.loc 1 735 5 is_stmt 1 view .LVU548
 735:Core/Src/freertos.c ****     Node_1.Temperature = (float)(Node_1.AHT10_ADC_Raw * 200.00 / 1048576.00) - 50.00;
 3124              		.loc 1 735 60 is_stmt 0 view .LVU549
 3125 0070 E57A     		ldrb	r5, [r4, #11]	@ zero_extendqisi2
 735:Core/Src/freertos.c ****     Node_1.Temperature = (float)(Node_1.AHT10_ADC_Raw * 200.00 / 1048576.00) - 50.00;
 3126              		.loc 1 735 70 view .LVU550
 3127 0072 2804     		lsls	r0, r5, #16
 3128 0074 00F47020 		and	r0, r0, #983040
 735:Core/Src/freertos.c ****     Node_1.Temperature = (float)(Node_1.AHT10_ADC_Raw * 200.00 / 1048576.00) - 50.00;
 3129              		.loc 1 735 110 view .LVU551
 3130 0078 237B     		ldrb	r3, [r4, #12]	@ zero_extendqisi2
 735:Core/Src/freertos.c ****     Node_1.Temperature = (float)(Node_1.AHT10_ADC_Raw * 200.00 / 1048576.00) - 50.00;
 3131              		.loc 1 735 77 view .LVU552
 3132 007a 40EA0320 		orr	r0, r0, r3, lsl #8
 735:Core/Src/freertos.c ****     Node_1.Temperature = (float)(Node_1.AHT10_ADC_Raw * 200.00 / 1048576.00) - 50.00;
 3133              		.loc 1 735 142 view .LVU553
 3134 007e 637B     		ldrb	r3, [r4, #13]	@ zero_extendqisi2
 735:Core/Src/freertos.c ****     Node_1.Temperature = (float)(Node_1.AHT10_ADC_Raw * 200.00 / 1048576.00) - 50.00;
 3135              		.loc 1 735 120 view .LVU554
 3136 0080 1843     		orrs	r0, r0, r3
 735:Core/Src/freertos.c ****     Node_1.Temperature = (float)(Node_1.AHT10_ADC_Raw * 200.00 / 1048576.00) - 50.00;
 3137              		.loc 1 735 26 view .LVU555
 3138 0082 2061     		str	r0, [r4, #16]
 736:Core/Src/freertos.c **** 
 3139              		.loc 1 736 5 is_stmt 1 view .LVU556
 736:Core/Src/freertos.c **** 
 3140              		.loc 1 736 55 is_stmt 0 view .LVU557
 3141 0084 FFF7FEFF 		bl	__aeabi_ui2d
 3142              	.LVL232:
 3143 0088 0022     		movs	r2, #0
 3144 008a A84B     		ldr	r3, .L150+68
 3145 008c FFF7FEFF 		bl	__aeabi_dmul
 3146              	.LVL233:
 736:Core/Src/freertos.c **** 
 3147              		.loc 1 736 64 view .LVU558
 3148 0090 0022     		movs	r2, #0
 3149 0092 A74B     		ldr	r3, .L150+72
 3150 0094 FFF7FEFF 		bl	__aeabi_dmul
 3151              	.LVL234:
 736:Core/Src/freertos.c **** 
 3152              		.loc 1 736 26 view .LVU559
 3153 0098 FFF7FEFF 		bl	__aeabi_d2f
 3154              	.LVL235:
 736:Core/Src/freertos.c **** 
 3155              		.loc 1 736 78 view .LVU560
 3156 009c A549     		ldr	r1, .L150+76
 3157 009e FFF7FEFF 		bl	__aeabi_fsub
 3158              	.LVL236:
 736:Core/Src/freertos.c **** 
 3159              		.loc 1 736 24 view .LVU561
 3160 00a2 2060     		str	r0, [r4]	@ float
 739:Core/Src/freertos.c ****     Node_1.Humidity = (float)(Node_1.AHT10_ADC_Raw*100.00/1048576.00);
 3161              		.loc 1 739 5 is_stmt 1 view .LVU562
ARM GAS  C:\Users\Vento\AppData\Local\Temp\ccEg74I3.s 			page 80


 739:Core/Src/freertos.c ****     Node_1.Humidity = (float)(Node_1.AHT10_ADC_Raw*100.00/1048576.00);
 3162              		.loc 1 739 59 is_stmt 0 view .LVU563
 3163 00a4 637A     		ldrb	r3, [r4, #9]	@ zero_extendqisi2
 739:Core/Src/freertos.c ****     Node_1.Humidity = (float)(Node_1.AHT10_ADC_Raw*100.00/1048576.00);
 3164              		.loc 1 739 103 view .LVU564
 3165 00a6 A07A     		ldrb	r0, [r4, #10]	@ zero_extendqisi2
 739:Core/Src/freertos.c ****     Node_1.Humidity = (float)(Node_1.AHT10_ADC_Raw*100.00/1048576.00);
 3166              		.loc 1 739 107 view .LVU565
 3167 00a8 0001     		lsls	r0, r0, #4
 739:Core/Src/freertos.c ****     Node_1.Humidity = (float)(Node_1.AHT10_ADC_Raw*100.00/1048576.00);
 3168              		.loc 1 739 70 view .LVU566
 3169 00aa 40EA0330 		orr	r0, r0, r3, lsl #12
 739:Core/Src/freertos.c ****     Node_1.Humidity = (float)(Node_1.AHT10_ADC_Raw*100.00/1048576.00);
 3170              		.loc 1 739 113 view .LVU567
 3171 00ae 40EA1510 		orr	r0, r0, r5, lsr #4
 739:Core/Src/freertos.c ****     Node_1.Humidity = (float)(Node_1.AHT10_ADC_Raw*100.00/1048576.00);
 3172              		.loc 1 739 26 view .LVU568
 3173 00b2 2061     		str	r0, [r4, #16]
 740:Core/Src/freertos.c ****   }
 3174              		.loc 1 740 5 is_stmt 1 view .LVU569
 740:Core/Src/freertos.c ****   }
 3175              		.loc 1 740 51 is_stmt 0 view .LVU570
 3176 00b4 FFF7FEFF 		bl	__aeabi_ui2d
 3177              	.LVL237:
 3178 00b8 0022     		movs	r2, #0
 3179 00ba 9F4B     		ldr	r3, .L150+80
 3180 00bc FFF7FEFF 		bl	__aeabi_dmul
 3181              	.LVL238:
 740:Core/Src/freertos.c ****   }
 3182              		.loc 1 740 58 view .LVU571
 3183 00c0 0022     		movs	r2, #0
 3184 00c2 9B4B     		ldr	r3, .L150+72
 3185 00c4 FFF7FEFF 		bl	__aeabi_dmul
 3186              	.LVL239:
 740:Core/Src/freertos.c ****   }
 3187              		.loc 1 740 23 view .LVU572
 3188 00c8 FFF7FEFF 		bl	__aeabi_d2f
 3189              	.LVL240:
 740:Core/Src/freertos.c ****   }
 3190              		.loc 1 740 21 view .LVU573
 3191 00cc 6060     		str	r0, [r4, #4]	@ float
 3192              	.L133:
 743:Core/Src/freertos.c ****   osDelay(500);
 3193              		.loc 1 743 3 is_stmt 1 view .LVU574
 3194 00ce 954D     		ldr	r5, .L150+60
 3195 00d0 0323     		movs	r3, #3
 3196 00d2 05AA     		add	r2, sp, #20
 3197 00d4 7221     		movs	r1, #114
 3198 00d6 2846     		mov	r0, r5
 3199 00d8 FFF7FEFF 		bl	HAL_I2C_Master_Transmit_IT
 3200              	.LVL241:
 744:Core/Src/freertos.c ****   HAL_I2C_Master_Receive_IT(&hi2c1, AHT10_ADDRESS_2, (uint8_t*)Node_2.AHT10_RX_Data, 6);
 3201              		.loc 1 744 3 view .LVU575
 3202 00dc 4FF4FA70 		mov	r0, #500
 3203 00e0 FFF7FEFF 		bl	osDelay
 3204              	.LVL242:
 745:Core/Src/freertos.c ****   osDelay(200);
ARM GAS  C:\Users\Vento\AppData\Local\Temp\ccEg74I3.s 			page 81


 3205              		.loc 1 745 3 view .LVU576
 3206 00e4 954C     		ldr	r4, .L150+84
 3207 00e6 0623     		movs	r3, #6
 3208 00e8 04F10802 		add	r2, r4, #8
 3209 00ec 7221     		movs	r1, #114
 3210 00ee 2846     		mov	r0, r5
 3211 00f0 FFF7FEFF 		bl	HAL_I2C_Master_Receive_IT
 3212              	.LVL243:
 746:Core/Src/freertos.c ****   if(~Node_2.AHT10_RX_Data[0] & 0x80)
 3213              		.loc 1 746 3 view .LVU577
 3214 00f4 C820     		movs	r0, #200
 3215 00f6 FFF7FEFF 		bl	osDelay
 3216              	.LVL244:
 747:Core/Src/freertos.c ****   {
 3217              		.loc 1 747 3 view .LVU578
 747:Core/Src/freertos.c ****   {
 3218              		.loc 1 747 6 is_stmt 0 view .LVU579
 3219 00fa 94F90830 		ldrsb	r3, [r4, #8]
 747:Core/Src/freertos.c ****   {
 3220              		.loc 1 747 5 view .LVU580
 3221 00fe 002B     		cmp	r3, #0
 3222 0100 2EDB     		blt	.L134
 750:Core/Src/freertos.c ****     Node_2.Temperature = (float)(Node_2.AHT10_ADC_Raw * 200.00 / 1048576.00) - 50.00;
 3223              		.loc 1 750 5 is_stmt 1 view .LVU581
 750:Core/Src/freertos.c ****     Node_2.Temperature = (float)(Node_2.AHT10_ADC_Raw * 200.00 / 1048576.00) - 50.00;
 3224              		.loc 1 750 60 is_stmt 0 view .LVU582
 3225 0102 E57A     		ldrb	r5, [r4, #11]	@ zero_extendqisi2
 750:Core/Src/freertos.c ****     Node_2.Temperature = (float)(Node_2.AHT10_ADC_Raw * 200.00 / 1048576.00) - 50.00;
 3226              		.loc 1 750 70 view .LVU583
 3227 0104 2804     		lsls	r0, r5, #16
 3228 0106 00F47020 		and	r0, r0, #983040
 750:Core/Src/freertos.c ****     Node_2.Temperature = (float)(Node_2.AHT10_ADC_Raw * 200.00 / 1048576.00) - 50.00;
 3229              		.loc 1 750 110 view .LVU584
 3230 010a 237B     		ldrb	r3, [r4, #12]	@ zero_extendqisi2
 750:Core/Src/freertos.c ****     Node_2.Temperature = (float)(Node_2.AHT10_ADC_Raw * 200.00 / 1048576.00) - 50.00;
 3231              		.loc 1 750 77 view .LVU585
 3232 010c 40EA0320 		orr	r0, r0, r3, lsl #8
 750:Core/Src/freertos.c ****     Node_2.Temperature = (float)(Node_2.AHT10_ADC_Raw * 200.00 / 1048576.00) - 50.00;
 3233              		.loc 1 750 142 view .LVU586
 3234 0110 637B     		ldrb	r3, [r4, #13]	@ zero_extendqisi2
 750:Core/Src/freertos.c ****     Node_2.Temperature = (float)(Node_2.AHT10_ADC_Raw * 200.00 / 1048576.00) - 50.00;
 3235              		.loc 1 750 120 view .LVU587
 3236 0112 1843     		orrs	r0, r0, r3
 750:Core/Src/freertos.c ****     Node_2.Temperature = (float)(Node_2.AHT10_ADC_Raw * 200.00 / 1048576.00) - 50.00;
 3237              		.loc 1 750 26 view .LVU588
 3238 0114 2061     		str	r0, [r4, #16]
 751:Core/Src/freertos.c **** 
 3239              		.loc 1 751 5 is_stmt 1 view .LVU589
 751:Core/Src/freertos.c **** 
 3240              		.loc 1 751 55 is_stmt 0 view .LVU590
 3241 0116 FFF7FEFF 		bl	__aeabi_ui2d
 3242              	.LVL245:
 3243 011a 0022     		movs	r2, #0
 3244 011c 834B     		ldr	r3, .L150+68
 3245 011e FFF7FEFF 		bl	__aeabi_dmul
 3246              	.LVL246:
 751:Core/Src/freertos.c **** 
ARM GAS  C:\Users\Vento\AppData\Local\Temp\ccEg74I3.s 			page 82


 3247              		.loc 1 751 64 view .LVU591
 3248 0122 0022     		movs	r2, #0
 3249 0124 824B     		ldr	r3, .L150+72
 3250 0126 FFF7FEFF 		bl	__aeabi_dmul
 3251              	.LVL247:
 751:Core/Src/freertos.c **** 
 3252              		.loc 1 751 26 view .LVU592
 3253 012a FFF7FEFF 		bl	__aeabi_d2f
 3254              	.LVL248:
 751:Core/Src/freertos.c **** 
 3255              		.loc 1 751 78 view .LVU593
 3256 012e 8149     		ldr	r1, .L150+76
 3257 0130 FFF7FEFF 		bl	__aeabi_fsub
 3258              	.LVL249:
 751:Core/Src/freertos.c **** 
 3259              		.loc 1 751 24 view .LVU594
 3260 0134 2060     		str	r0, [r4]	@ float
 754:Core/Src/freertos.c ****     Node_2.Humidity = (float)(Node_2.AHT10_ADC_Raw * 100.00 / 1048576.00);
 3261              		.loc 1 754 5 is_stmt 1 view .LVU595
 754:Core/Src/freertos.c ****     Node_2.Humidity = (float)(Node_2.AHT10_ADC_Raw * 100.00 / 1048576.00);
 3262              		.loc 1 754 59 is_stmt 0 view .LVU596
 3263 0136 637A     		ldrb	r3, [r4, #9]	@ zero_extendqisi2
 754:Core/Src/freertos.c ****     Node_2.Humidity = (float)(Node_2.AHT10_ADC_Raw * 100.00 / 1048576.00);
 3264              		.loc 1 754 103 view .LVU597
 3265 0138 A07A     		ldrb	r0, [r4, #10]	@ zero_extendqisi2
 754:Core/Src/freertos.c ****     Node_2.Humidity = (float)(Node_2.AHT10_ADC_Raw * 100.00 / 1048576.00);
 3266              		.loc 1 754 107 view .LVU598
 3267 013a 0001     		lsls	r0, r0, #4
 754:Core/Src/freertos.c ****     Node_2.Humidity = (float)(Node_2.AHT10_ADC_Raw * 100.00 / 1048576.00);
 3268              		.loc 1 754 70 view .LVU599
 3269 013c 40EA0330 		orr	r0, r0, r3, lsl #12
 754:Core/Src/freertos.c ****     Node_2.Humidity = (float)(Node_2.AHT10_ADC_Raw * 100.00 / 1048576.00);
 3270              		.loc 1 754 113 view .LVU600
 3271 0140 40EA1510 		orr	r0, r0, r5, lsr #4
 754:Core/Src/freertos.c ****     Node_2.Humidity = (float)(Node_2.AHT10_ADC_Raw * 100.00 / 1048576.00);
 3272              		.loc 1 754 26 view .LVU601
 3273 0144 2061     		str	r0, [r4, #16]
 755:Core/Src/freertos.c ****   }
 3274              		.loc 1 755 5 is_stmt 1 view .LVU602
 755:Core/Src/freertos.c ****   }
 3275              		.loc 1 755 52 is_stmt 0 view .LVU603
 3276 0146 FFF7FEFF 		bl	__aeabi_ui2d
 3277              	.LVL250:
 3278 014a 0022     		movs	r2, #0
 3279 014c 7A4B     		ldr	r3, .L150+80
 3280 014e FFF7FEFF 		bl	__aeabi_dmul
 3281              	.LVL251:
 755:Core/Src/freertos.c ****   }
 3282              		.loc 1 755 61 view .LVU604
 3283 0152 0022     		movs	r2, #0
 3284 0154 764B     		ldr	r3, .L150+72
 3285 0156 FFF7FEFF 		bl	__aeabi_dmul
 3286              	.LVL252:
 755:Core/Src/freertos.c ****   }
 3287              		.loc 1 755 23 view .LVU605
 3288 015a FFF7FEFF 		bl	__aeabi_d2f
 3289              	.LVL253:
ARM GAS  C:\Users\Vento\AppData\Local\Temp\ccEg74I3.s 			page 83


 755:Core/Src/freertos.c ****   }
 3290              		.loc 1 755 21 view .LVU606
 3291 015e 6060     		str	r0, [r4, #4]	@ float
 3292              	.L134:
 759:Core/Src/freertos.c ****   uint16_t ADC_t[3];
 3293              		.loc 1 759 3 is_stmt 1 view .LVU607
 759:Core/Src/freertos.c ****   uint16_t ADC_t[3];
 3294              		.loc 1 759 26 is_stmt 0 view .LVU608
 3295 0160 0023     		movs	r3, #0
 3296 0162 0293     		str	r3, [sp, #8]
 3297 0164 0393     		str	r3, [sp, #12]
 3298 0166 0493     		str	r3, [sp, #16]
 760:Core/Src/freertos.c ****   //------------------------------------------Channel 0--------------------------------------------
 3299              		.loc 1 760 3 is_stmt 1 view .LVU609
 763:Core/Src/freertos.c ****   sConfig.Rank = ADC_REGULAR_RANK_1;
 3300              		.loc 1 763 3 view .LVU610
 764:Core/Src/freertos.c ****   sConfig.SamplingTime = ADC_SAMPLETIME_239CYCLES_5;
 3301              		.loc 1 764 3 view .LVU611
 764:Core/Src/freertos.c ****   sConfig.SamplingTime = ADC_SAMPLETIME_239CYCLES_5;
 3302              		.loc 1 764 16 is_stmt 0 view .LVU612
 3303 0168 0123     		movs	r3, #1
 3304 016a 0393     		str	r3, [sp, #12]
 765:Core/Src/freertos.c ****   if (HAL_ADC_ConfigChannel(&hadc1, &sConfig) != HAL_OK)
 3305              		.loc 1 765 3 is_stmt 1 view .LVU613
 765:Core/Src/freertos.c ****   if (HAL_ADC_ConfigChannel(&hadc1, &sConfig) != HAL_OK)
 3306              		.loc 1 765 24 is_stmt 0 view .LVU614
 3307 016c 0723     		movs	r3, #7
 3308 016e 0493     		str	r3, [sp, #16]
 766:Core/Src/freertos.c ****   {
 3309              		.loc 1 766 3 is_stmt 1 view .LVU615
 766:Core/Src/freertos.c ****   {
 3310              		.loc 1 766 7 is_stmt 0 view .LVU616
 3311 0170 02A9     		add	r1, sp, #8
 3312 0172 7348     		ldr	r0, .L150+88
 3313 0174 FFF7FEFF 		bl	HAL_ADC_ConfigChannel
 3314              	.LVL254:
 766:Core/Src/freertos.c ****   {
 3315              		.loc 1 766 6 view .LVU617
 3316 0178 0028     		cmp	r0, #0
 3317 017a 40F0A480 		bne	.L144
 3318              	.L135:
 770:Core/Src/freertos.c ****   HAL_ADC_PollForConversion(&hadc1, 100);
 3319              		.loc 1 770 3 is_stmt 1 view .LVU618
 3320 017e 704C     		ldr	r4, .L150+88
 3321 0180 2046     		mov	r0, r4
 3322 0182 FFF7FEFF 		bl	HAL_ADC_Start
 3323              	.LVL255:
 771:Core/Src/freertos.c ****   ADC_t[0] = HAL_ADC_GetValue(&hadc1);
 3324              		.loc 1 771 3 view .LVU619
 3325 0186 6421     		movs	r1, #100
 3326 0188 2046     		mov	r0, r4
 3327 018a FFF7FEFF 		bl	HAL_ADC_PollForConversion
 3328              	.LVL256:
 772:Core/Src/freertos.c ****   DirtHumd = (ADC_t[0] * VCC / 4095) - 0.175;
 3329              		.loc 1 772 3 view .LVU620
 772:Core/Src/freertos.c ****   DirtHumd = (ADC_t[0] * VCC / 4095) - 0.175;
 3330              		.loc 1 772 14 is_stmt 0 view .LVU621
ARM GAS  C:\Users\Vento\AppData\Local\Temp\ccEg74I3.s 			page 84


 3331 018e 2046     		mov	r0, r4
 3332 0190 FFF7FEFF 		bl	HAL_ADC_GetValue
 3333              	.LVL257:
 772:Core/Src/freertos.c ****   DirtHumd = (ADC_t[0] * VCC / 4095) - 0.175;
 3334              		.loc 1 772 12 view .LVU622
 3335 0194 80B2     		uxth	r0, r0
 3336 0196 ADF80000 		strh	r0, [sp]	@ movhi
 773:Core/Src/freertos.c ****   HAL_ADC_Stop(&hadc1);
 3337              		.loc 1 773 3 is_stmt 1 view .LVU623
 773:Core/Src/freertos.c ****   HAL_ADC_Stop(&hadc1);
 3338              		.loc 1 773 24 is_stmt 0 view .LVU624
 3339 019a FFF7FEFF 		bl	__aeabi_i2d
 3340              	.LVL258:
 3341 019e 52A3     		adr	r3, .L150
 3342 01a0 D3E90023 		ldrd	r2, [r3]
 3343 01a4 FFF7FEFF 		bl	__aeabi_dmul
 3344              	.LVL259:
 773:Core/Src/freertos.c ****   HAL_ADC_Stop(&hadc1);
 3345              		.loc 1 773 30 view .LVU625
 3346 01a8 51A3     		adr	r3, .L150+8
 3347 01aa D3E90023 		ldrd	r2, [r3]
 3348 01ae FFF7FEFF 		bl	__aeabi_ddiv
 3349              	.LVL260:
 773:Core/Src/freertos.c ****   HAL_ADC_Stop(&hadc1);
 3350              		.loc 1 773 38 view .LVU626
 3351 01b2 51A3     		adr	r3, .L150+16
 3352 01b4 D3E90023 		ldrd	r2, [r3]
 3353 01b8 FFF7FEFF 		bl	__aeabi_dsub
 3354              	.LVL261:
 3355 01bc FFF7FEFF 		bl	__aeabi_d2f
 3356              	.LVL262:
 773:Core/Src/freertos.c ****   HAL_ADC_Stop(&hadc1);
 3357              		.loc 1 773 12 view .LVU627
 3358 01c0 604B     		ldr	r3, .L150+92
 3359 01c2 1860     		str	r0, [r3]	@ float
 774:Core/Src/freertos.c ****   
 3360              		.loc 1 774 3 is_stmt 1 view .LVU628
 3361 01c4 2046     		mov	r0, r4
 3362 01c6 FFF7FEFF 		bl	HAL_ADC_Stop
 3363              	.LVL263:
 777:Core/Src/freertos.c ****   if (HAL_ADC_ConfigChannel(&hadc1, &sConfig) != HAL_OK)
 3364              		.loc 1 777 3 view .LVU629
 777:Core/Src/freertos.c ****   if (HAL_ADC_ConfigChannel(&hadc1, &sConfig) != HAL_OK)
 3365              		.loc 1 777 19 is_stmt 0 view .LVU630
 3366 01ca 0123     		movs	r3, #1
 3367 01cc 0293     		str	r3, [sp, #8]
 778:Core/Src/freertos.c ****   {
 3368              		.loc 1 778 3 is_stmt 1 view .LVU631
 778:Core/Src/freertos.c ****   {
 3369              		.loc 1 778 7 is_stmt 0 view .LVU632
 3370 01ce 02A9     		add	r1, sp, #8
 3371 01d0 2046     		mov	r0, r4
 3372 01d2 FFF7FEFF 		bl	HAL_ADC_ConfigChannel
 3373              	.LVL264:
 778:Core/Src/freertos.c ****   {
 3374              		.loc 1 778 6 view .LVU633
 3375 01d6 0028     		cmp	r0, #0
ARM GAS  C:\Users\Vento\AppData\Local\Temp\ccEg74I3.s 			page 85


 3376 01d8 78D1     		bne	.L145
 3377              	.L136:
 782:Core/Src/freertos.c ****   HAL_ADC_PollForConversion(&hadc1, 100);
 3378              		.loc 1 782 3 is_stmt 1 view .LVU634
 3379 01da 594C     		ldr	r4, .L150+88
 3380 01dc 2046     		mov	r0, r4
 3381 01de FFF7FEFF 		bl	HAL_ADC_Start
 3382              	.LVL265:
 783:Core/Src/freertos.c ****   ADC_t[1] = HAL_ADC_GetValue(&hadc1);
 3383              		.loc 1 783 3 view .LVU635
 3384 01e2 6421     		movs	r1, #100
 3385 01e4 2046     		mov	r0, r4
 3386 01e6 FFF7FEFF 		bl	HAL_ADC_PollForConversion
 3387              	.LVL266:
 784:Core/Src/freertos.c ****   Solar.voltage = ADC_t[1] * VCC * 2.232 / 4095;
 3388              		.loc 1 784 3 view .LVU636
 784:Core/Src/freertos.c ****   Solar.voltage = ADC_t[1] * VCC * 2.232 / 4095;
 3389              		.loc 1 784 14 is_stmt 0 view .LVU637
 3390 01ea 2046     		mov	r0, r4
 3391 01ec FFF7FEFF 		bl	HAL_ADC_GetValue
 3392              	.LVL267:
 784:Core/Src/freertos.c ****   Solar.voltage = ADC_t[1] * VCC * 2.232 / 4095;
 3393              		.loc 1 784 12 view .LVU638
 3394 01f0 80B2     		uxth	r0, r0
 3395 01f2 ADF80200 		strh	r0, [sp, #2]	@ movhi
 785:Core/Src/freertos.c ****   HAL_ADC_Stop(&hadc1);
 3396              		.loc 1 785 3 is_stmt 1 view .LVU639
 785:Core/Src/freertos.c ****   HAL_ADC_Stop(&hadc1);
 3397              		.loc 1 785 28 is_stmt 0 view .LVU640
 3398 01f6 FFF7FEFF 		bl	__aeabi_i2d
 3399              	.LVL268:
 3400 01fa 3BA3     		adr	r3, .L150
 3401 01fc D3E90023 		ldrd	r2, [r3]
 3402 0200 FFF7FEFF 		bl	__aeabi_dmul
 3403              	.LVL269:
 785:Core/Src/freertos.c ****   HAL_ADC_Stop(&hadc1);
 3404              		.loc 1 785 34 view .LVU641
 3405 0204 3EA3     		adr	r3, .L150+24
 3406 0206 D3E90023 		ldrd	r2, [r3]
 3407 020a FFF7FEFF 		bl	__aeabi_dmul
 3408              	.LVL270:
 785:Core/Src/freertos.c ****   HAL_ADC_Stop(&hadc1);
 3409              		.loc 1 785 42 view .LVU642
 3410 020e 38A3     		adr	r3, .L150+8
 3411 0210 D3E90023 		ldrd	r2, [r3]
 3412 0214 FFF7FEFF 		bl	__aeabi_ddiv
 3413              	.LVL271:
 785:Core/Src/freertos.c ****   HAL_ADC_Stop(&hadc1);
 3414              		.loc 1 785 17 view .LVU643
 3415 0218 4B4B     		ldr	r3, .L150+96
 3416 021a C3E90001 		strd	r0, [r3]
 786:Core/Src/freertos.c **** 
 3417              		.loc 1 786 3 is_stmt 1 view .LVU644
 3418 021e 2046     		mov	r0, r4
 3419 0220 FFF7FEFF 		bl	HAL_ADC_Stop
 3420              	.LVL272:
 789:Core/Src/freertos.c ****   if (HAL_ADC_ConfigChannel(&hadc1, &sConfig) != HAL_OK)
ARM GAS  C:\Users\Vento\AppData\Local\Temp\ccEg74I3.s 			page 86


 3421              		.loc 1 789 3 view .LVU645
 789:Core/Src/freertos.c ****   if (HAL_ADC_ConfigChannel(&hadc1, &sConfig) != HAL_OK)
 3422              		.loc 1 789 19 is_stmt 0 view .LVU646
 3423 0224 0323     		movs	r3, #3
 3424 0226 0293     		str	r3, [sp, #8]
 790:Core/Src/freertos.c ****   {
 3425              		.loc 1 790 3 is_stmt 1 view .LVU647
 790:Core/Src/freertos.c ****   {
 3426              		.loc 1 790 7 is_stmt 0 view .LVU648
 3427 0228 02A9     		add	r1, sp, #8
 3428 022a 2046     		mov	r0, r4
 3429 022c FFF7FEFF 		bl	HAL_ADC_ConfigChannel
 3430              	.LVL273:
 790:Core/Src/freertos.c ****   {
 3431              		.loc 1 790 6 view .LVU649
 3432 0230 0028     		cmp	r0, #0
 3433 0232 4ED1     		bne	.L146
 3434              	.L137:
 794:Core/Src/freertos.c ****   HAL_ADC_PollForConversion(&hadc1, 100);
 3435              		.loc 1 794 3 is_stmt 1 view .LVU650
 3436 0234 424C     		ldr	r4, .L150+88
 3437 0236 2046     		mov	r0, r4
 3438 0238 FFF7FEFF 		bl	HAL_ADC_Start
 3439              	.LVL274:
 795:Core/Src/freertos.c ****   ADC_t[2] = HAL_ADC_GetValue(&hadc1);
 3440              		.loc 1 795 3 view .LVU651
 3441 023c 6421     		movs	r1, #100
 3442 023e 2046     		mov	r0, r4
 3443 0240 FFF7FEFF 		bl	HAL_ADC_PollForConversion
 3444              	.LVL275:
 796:Core/Src/freertos.c ****   LipoBatt.voltage = ADC_t[2] * VCC * 3.963 / 4095;
 3445              		.loc 1 796 3 view .LVU652
 796:Core/Src/freertos.c ****   LipoBatt.voltage = ADC_t[2] * VCC * 3.963 / 4095;
 3446              		.loc 1 796 14 is_stmt 0 view .LVU653
 3447 0244 2046     		mov	r0, r4
 3448 0246 FFF7FEFF 		bl	HAL_ADC_GetValue
 3449              	.LVL276:
 796:Core/Src/freertos.c ****   LipoBatt.voltage = ADC_t[2] * VCC * 3.963 / 4095;
 3450              		.loc 1 796 12 view .LVU654
 3451 024a 80B2     		uxth	r0, r0
 3452 024c ADF80400 		strh	r0, [sp, #4]	@ movhi
 797:Core/Src/freertos.c ****   HAL_ADC_Stop(&hadc1);
 3453              		.loc 1 797 3 is_stmt 1 view .LVU655
 797:Core/Src/freertos.c ****   HAL_ADC_Stop(&hadc1);
 3454              		.loc 1 797 31 is_stmt 0 view .LVU656
 3455 0250 FFF7FEFF 		bl	__aeabi_i2d
 3456              	.LVL277:
 3457 0254 24A3     		adr	r3, .L150
 3458 0256 D3E90023 		ldrd	r2, [r3]
 3459 025a FFF7FEFF 		bl	__aeabi_dmul
 3460              	.LVL278:
 797:Core/Src/freertos.c ****   HAL_ADC_Stop(&hadc1);
 3461              		.loc 1 797 37 view .LVU657
 3462 025e 2AA3     		adr	r3, .L150+32
 3463 0260 D3E90023 		ldrd	r2, [r3]
 3464 0264 FFF7FEFF 		bl	__aeabi_dmul
 3465              	.LVL279:
ARM GAS  C:\Users\Vento\AppData\Local\Temp\ccEg74I3.s 			page 87


 797:Core/Src/freertos.c ****   HAL_ADC_Stop(&hadc1);
 3466              		.loc 1 797 45 view .LVU658
 3467 0268 21A3     		adr	r3, .L150+8
 3468 026a D3E90023 		ldrd	r2, [r3]
 3469 026e FFF7FEFF 		bl	__aeabi_ddiv
 3470              	.LVL280:
 797:Core/Src/freertos.c ****   HAL_ADC_Stop(&hadc1);
 3471              		.loc 1 797 20 view .LVU659
 3472 0272 364B     		ldr	r3, .L150+100
 3473 0274 C3E90001 		strd	r0, [r3]
 798:Core/Src/freertos.c **** 
 3474              		.loc 1 798 3 is_stmt 1 view .LVU660
 3475 0278 2046     		mov	r0, r4
 3476 027a FFF7FEFF 		bl	HAL_ADC_Stop
 3477              	.LVL281:
 802:Core/Src/freertos.c ****   else  {Adapter.state = false;}
 3478              		.loc 1 802 3 view .LVU661
 802:Core/Src/freertos.c ****   else  {Adapter.state = false;}
 3479              		.loc 1 802 7 is_stmt 0 view .LVU662
 3480 027e 1021     		movs	r1, #16
 3481 0280 3348     		ldr	r0, .L150+104
 3482 0282 FFF7FEFF 		bl	HAL_GPIO_ReadPin
 3483              	.LVL282:
 802:Core/Src/freertos.c ****   else  {Adapter.state = false;}
 3484              		.loc 1 802 6 view .LVU663
 3485 0286 0128     		cmp	r0, #1
 3486 0288 26D0     		beq	.L147
 803:Core/Src/freertos.c ****   if (HAL_GPIO_ReadPin(GPIOB, GPIO_PIN_12) == 1)  {Batt.state = true;}
 3487              		.loc 1 803 10 is_stmt 1 view .LVU664
 803:Core/Src/freertos.c ****   if (HAL_GPIO_ReadPin(GPIOB, GPIO_PIN_12) == 1)  {Batt.state = true;}
 3488              		.loc 1 803 24 is_stmt 0 view .LVU665
 3489 028a 324B     		ldr	r3, .L150+108
 3490 028c 0022     		movs	r2, #0
 3491 028e 1A70     		strb	r2, [r3]
 3492              	.L139:
 804:Core/Src/freertos.c ****   else  {Batt.state = false;}
 3493              		.loc 1 804 3 is_stmt 1 view .LVU666
 804:Core/Src/freertos.c ****   else  {Batt.state = false;}
 3494              		.loc 1 804 7 is_stmt 0 view .LVU667
 3495 0290 4FF48051 		mov	r1, #4096
 3496 0294 2E48     		ldr	r0, .L150+104
 3497 0296 FFF7FEFF 		bl	HAL_GPIO_ReadPin
 3498              	.LVL283:
 804:Core/Src/freertos.c ****   else  {Batt.state = false;}
 3499              		.loc 1 804 6 view .LVU668
 3500 029a 0128     		cmp	r0, #1
 3501 029c 20D0     		beq	.L148
 805:Core/Src/freertos.c **** 
 3502              		.loc 1 805 10 is_stmt 1 view .LVU669
 805:Core/Src/freertos.c **** 
 3503              		.loc 1 805 21 is_stmt 0 view .LVU670
 3504 029e 2E4B     		ldr	r3, .L150+112
 3505 02a0 0022     		movs	r2, #0
 3506 02a2 1A70     		strb	r2, [r3]
 3507              	.L141:
 808:Core/Src/freertos.c ****   Time_Check.Measure_Time[2] = Time_Check.Measure_Time[1] - Time_Check.Measure_Time[0];
 3508              		.loc 1 808 3 is_stmt 1 view .LVU671
ARM GAS  C:\Users\Vento\AppData\Local\Temp\ccEg74I3.s 			page 88


 808:Core/Src/freertos.c ****   Time_Check.Measure_Time[2] = Time_Check.Measure_Time[1] - Time_Check.Measure_Time[0];
 3509              		.loc 1 808 32 is_stmt 0 view .LVU672
 3510 02a4 FFF7FEFF 		bl	HAL_GetTick
 3511              	.LVL284:
 808:Core/Src/freertos.c ****   Time_Check.Measure_Time[2] = Time_Check.Measure_Time[1] - Time_Check.Measure_Time[0];
 3512              		.loc 1 808 30 view .LVU673
 3513 02a8 1C4B     		ldr	r3, .L150+52
 3514 02aa D861     		str	r0, [r3, #28]
 809:Core/Src/freertos.c ****   osSemaphoreRelease(BinarySem02Handle);
 3515              		.loc 1 809 3 is_stmt 1 view .LVU674
 809:Core/Src/freertos.c ****   osSemaphoreRelease(BinarySem02Handle);
 3516              		.loc 1 809 84 is_stmt 0 view .LVU675
 3517 02ac 9A69     		ldr	r2, [r3, #24]
 809:Core/Src/freertos.c ****   osSemaphoreRelease(BinarySem02Handle);
 3518              		.loc 1 809 59 view .LVU676
 3519 02ae 801A     		subs	r0, r0, r2
 809:Core/Src/freertos.c ****   osSemaphoreRelease(BinarySem02Handle);
 3520              		.loc 1 809 30 view .LVU677
 3521 02b0 1862     		str	r0, [r3, #32]
 810:Core/Src/freertos.c ****   if (DeviceState == RUNNING)   {osThreadResume(LCDHandle);}
 3522              		.loc 1 810 3 is_stmt 1 view .LVU678
 3523 02b2 2A4B     		ldr	r3, .L150+116
 3524 02b4 1868     		ldr	r0, [r3]
 3525 02b6 FFF7FEFF 		bl	osSemaphoreRelease
 3526              	.LVL285:
 811:Core/Src/freertos.c ****   
 3527              		.loc 1 811 3 view .LVU679
 811:Core/Src/freertos.c ****   
 3528              		.loc 1 811 19 is_stmt 0 view .LVU680
 3529 02ba 294B     		ldr	r3, .L150+120
 3530 02bc 1B78     		ldrb	r3, [r3]	@ zero_extendqisi2
 811:Core/Src/freertos.c ****   
 3531              		.loc 1 811 6 view .LVU681
 3532 02be 012B     		cmp	r3, #1
 3533 02c0 50D0     		beq	.L149
 3534              	.L131:
 815:Core/Src/freertos.c **** 
 3535              		.loc 1 815 1 view .LVU682
 3536 02c2 07B0     		add	sp, sp, #28
 3537              	.LCFI14:
 3538              		.cfi_remember_state
 3539              		.cfi_def_cfa_offset 12
 3540              		@ sp needed
 3541 02c4 30BD     		pop	{r4, r5, pc}
 3542              	.L144:
 3543              	.LCFI15:
 3544              		.cfi_restore_state
 768:Core/Src/freertos.c ****   }
 3545              		.loc 1 768 5 is_stmt 1 view .LVU683
 3546 02c6 FFF7FEFF 		bl	Error_Handler
 3547              	.LVL286:
 3548 02ca 58E7     		b	.L135
 3549              	.L145:
 780:Core/Src/freertos.c ****   }
 3550              		.loc 1 780 5 view .LVU684
 3551 02cc FFF7FEFF 		bl	Error_Handler
 3552              	.LVL287:
ARM GAS  C:\Users\Vento\AppData\Local\Temp\ccEg74I3.s 			page 89


 3553 02d0 83E7     		b	.L136
 3554              	.L146:
 792:Core/Src/freertos.c ****   }
 3555              		.loc 1 792 5 view .LVU685
 3556 02d2 FFF7FEFF 		bl	Error_Handler
 3557              	.LVL288:
 3558 02d6 ADE7     		b	.L137
 3559              	.L147:
 802:Core/Src/freertos.c ****   else  {Adapter.state = false;}
 3560              		.loc 1 802 52 discriminator 1 view .LVU686
 802:Core/Src/freertos.c ****   else  {Adapter.state = false;}
 3561              		.loc 1 802 66 is_stmt 0 discriminator 1 view .LVU687
 3562 02d8 1E4B     		ldr	r3, .L150+108
 3563 02da 0122     		movs	r2, #1
 3564 02dc 1A70     		strb	r2, [r3]
 3565 02de D7E7     		b	.L139
 3566              	.L148:
 804:Core/Src/freertos.c ****   else  {Batt.state = false;}
 3567              		.loc 1 804 52 is_stmt 1 discriminator 1 view .LVU688
 804:Core/Src/freertos.c ****   else  {Batt.state = false;}
 3568              		.loc 1 804 63 is_stmt 0 discriminator 1 view .LVU689
 3569 02e0 1D4B     		ldr	r3, .L150+112
 3570 02e2 0122     		movs	r2, #1
 3571 02e4 1A70     		strb	r2, [r3]
 3572 02e6 DDE7     		b	.L141
 3573              	.L151:
 3574              		.align	3
 3575              	.L150:
 3576 02e8 448B6CE7 		.word	-412316860
 3577 02ec FBA90A40 		.word	1074440699
 3578 02f0 00000000 		.word	0
 3579 02f4 00FEAF40 		.word	1085275648
 3580 02f8 66666666 		.word	1717986918
 3581 02fc 6666C63F 		.word	1069966950
 3582 0300 4260E5D0 		.word	-790273982
 3583 0304 22DB0140 		.word	1073863458
 3584 0308 4E621058 		.word	1477468750
 3585 030c 39B40F40 		.word	1074771001
 3586 0310 00000000 		.word	.LANCHOR29
 3587 0314 00000000 		.word	.LANCHOR30
 3588 0318 00000000 		.word	hiwdg
 3589 031c 00000000 		.word	.LANCHOR1
 3590 0320 00000000 		.word	.LC35
 3591 0324 00000000 		.word	hi2c1
 3592 0328 00000000 		.word	.LANCHOR2
 3593 032c 00006940 		.word	1080623104
 3594 0330 0000B03E 		.word	1051721728
 3595 0334 00004842 		.word	1112014848
 3596 0338 00005940 		.word	1079574528
 3597 033c 00000000 		.word	.LANCHOR8
 3598 0340 00000000 		.word	hadc1
 3599 0344 00000000 		.word	.LANCHOR7
 3600 0348 00000000 		.word	.LANCHOR9
 3601 034c 00000000 		.word	.LANCHOR4
 3602 0350 000C0140 		.word	1073810432
 3603 0354 00000000 		.word	.LANCHOR5
 3604 0358 00000000 		.word	.LANCHOR11
ARM GAS  C:\Users\Vento\AppData\Local\Temp\ccEg74I3.s 			page 90


 3605 035c 00000000 		.word	.LANCHOR0
 3606 0360 00000000 		.word	.LANCHOR16
 3607              	.L149:
 811:Core/Src/freertos.c ****   
 3608              		.loc 1 811 34 is_stmt 1 discriminator 1 view .LVU690
 3609 0364 024B     		ldr	r3, .L152
 3610 0366 1868     		ldr	r0, [r3]
 3611 0368 FFF7FEFF 		bl	osThreadResume
 3612              	.LVL289:
 815:Core/Src/freertos.c **** 
 3613              		.loc 1 815 1 is_stmt 0 discriminator 1 view .LVU691
 3614 036c A9E7     		b	.L131
 3615              	.L153:
 3616 036e 00BF     		.align	2
 3617              	.L152:
 3618 0370 00000000 		.word	.LANCHOR15
 3619              		.cfi_endproc
 3620              	.LFE75:
 3622              		.global	BinarySem02_attributes
 3623              		.section	.rodata.str1.4,"aMS",%progbits,1
 3624              		.align	2
 3625              	.LC36:
 3626 0000 42696E61 		.ascii	"BinarySem02\000"
 3626      72795365 
 3626      6D303200 
 3627              		.global	BinarySem02Handle
 3628              		.global	BinarySem01_attributes
 3629              		.align	2
 3630              	.LC37:
 3631 000c 42696E61 		.ascii	"BinarySem01\000"
 3631      72795365 
 3631      6D303100 
 3632              		.global	BinarySem01Handle
 3633              		.global	Timer03_attributes
 3634              		.align	2
 3635              	.LC38:
 3636 0018 54696D65 		.ascii	"Timer03\000"
 3636      72303300 
 3637              		.global	Timer03Handle
 3638              		.global	Timer02_attributes
 3639              		.align	2
 3640              	.LC39:
 3641 0020 54696D65 		.ascii	"Timer02\000"
 3641      72303200 
 3642              		.global	Timer02Handle
 3643              		.global	Timer01_attributes
 3644              		.align	2
 3645              	.LC40:
 3646 0028 54696D65 		.ascii	"Timer01\000"
 3646      72303100 
 3647              		.global	Timer01Handle
 3648              		.global	IRQ_attributes
 3649              		.align	2
 3650              	.LC41:
 3651 0030 49525100 		.ascii	"IRQ\000"
 3652              		.global	IRQHandle
 3653              		.global	LCD_attributes
ARM GAS  C:\Users\Vento\AppData\Local\Temp\ccEg74I3.s 			page 91


 3654              		.align	2
 3655              	.LC42:
 3656 0034 4C434400 		.ascii	"LCD\000"
 3657              		.global	LCDHandle
 3658              		.global	SIM_attributes
 3659              		.align	2
 3660              	.LC43:
 3661 0038 53494D00 		.ascii	"SIM\000"
 3662              		.global	SIMHandle
 3663              		.global	Button_2
 3664              		.global	Button_1
 3665              		.global	Time_Check
 3666              		.global	CurrentPage
 3667              		.global	DeviceState
 3668              		.global	Deg
 3669              		.global	PWM_State
 3670              		.global	PWM_Count
 3671              		.global	PowerSate
 3672              		.global	Solar
 3673              		.global	LipoBatt
