ARM GAS  C:\Users\Vento\AppData\Local\Temp\ccRQpzlo.s 			page 1


   1              		.cpu cortex-m3
   2              		.eabi_attribute 20, 1
   3              		.eabi_attribute 21, 1
   4              		.eabi_attribute 23, 3
   5              		.eabi_attribute 24, 1
   6              		.eabi_attribute 25, 1
   7              		.eabi_attribute 26, 1
   8              		.eabi_attribute 30, 1
   9              		.eabi_attribute 34, 1
  10              		.eabi_attribute 18, 4
  11              		.file	"tim.c"
  12              		.text
  13              	.Ltext0:
  14              		.cfi_sections	.debug_frame
  15              		.section	.text.MX_TIM2_Init,"ax",%progbits
  16              		.align	1
  17              		.global	MX_TIM2_Init
  18              		.arch armv7-m
  19              		.syntax unified
  20              		.thumb
  21              		.thumb_func
  22              		.fpu softvfp
  24              	MX_TIM2_Init:
  25              	.LFB65:
  26              		.file 1 "Core/Src/tim.c"
   1:Core/Src/tim.c **** /* USER CODE BEGIN Header */
   2:Core/Src/tim.c **** /**
   3:Core/Src/tim.c ****   ******************************************************************************
   4:Core/Src/tim.c ****   * @file    tim.c
   5:Core/Src/tim.c ****   * @brief   This file provides code for the configuration
   6:Core/Src/tim.c ****   *          of the TIM instances.
   7:Core/Src/tim.c ****   ******************************************************************************
   8:Core/Src/tim.c ****   * @attention
   9:Core/Src/tim.c ****   *
  10:Core/Src/tim.c ****   * Copyright (c) 2022 STMicroelectronics.
  11:Core/Src/tim.c ****   * All rights reserved.
  12:Core/Src/tim.c ****   *
  13:Core/Src/tim.c ****   * This software is licensed under terms that can be found in the LICENSE file
  14:Core/Src/tim.c ****   * in the root directory of this software component.
  15:Core/Src/tim.c ****   * If no LICENSE file comes with this software, it is provided AS-IS.
  16:Core/Src/tim.c ****   *
  17:Core/Src/tim.c ****   ******************************************************************************
  18:Core/Src/tim.c ****   */
  19:Core/Src/tim.c **** /* USER CODE END Header */
  20:Core/Src/tim.c **** /* Includes ------------------------------------------------------------------*/
  21:Core/Src/tim.c **** #include "tim.h"
  22:Core/Src/tim.c **** 
  23:Core/Src/tim.c **** /* USER CODE BEGIN 0 */
  24:Core/Src/tim.c **** 
  25:Core/Src/tim.c **** /* USER CODE END 0 */
  26:Core/Src/tim.c **** 
  27:Core/Src/tim.c **** TIM_HandleTypeDef htim2;
  28:Core/Src/tim.c **** 
  29:Core/Src/tim.c **** /* TIM2 init function */
  30:Core/Src/tim.c **** void MX_TIM2_Init(void)
  31:Core/Src/tim.c **** {
  27              		.loc 1 31 1 view -0
ARM GAS  C:\Users\Vento\AppData\Local\Temp\ccRQpzlo.s 			page 2


  28              		.cfi_startproc
  29              		@ args = 0, pretend = 0, frame = 24
  30              		@ frame_needed = 0, uses_anonymous_args = 0
  31 0000 00B5     		push	{lr}
  32              	.LCFI0:
  33              		.cfi_def_cfa_offset 4
  34              		.cfi_offset 14, -4
  35 0002 87B0     		sub	sp, sp, #28
  36              	.LCFI1:
  37              		.cfi_def_cfa_offset 32
  32:Core/Src/tim.c **** 
  33:Core/Src/tim.c ****   /* USER CODE BEGIN TIM2_Init 0 */
  34:Core/Src/tim.c **** 
  35:Core/Src/tim.c ****   /* USER CODE END TIM2_Init 0 */
  36:Core/Src/tim.c **** 
  37:Core/Src/tim.c ****   TIM_ClockConfigTypeDef sClockSourceConfig = {0};
  38              		.loc 1 37 3 view .LVU1
  39              		.loc 1 37 26 is_stmt 0 view .LVU2
  40 0004 0023     		movs	r3, #0
  41 0006 0293     		str	r3, [sp, #8]
  42 0008 0393     		str	r3, [sp, #12]
  43 000a 0493     		str	r3, [sp, #16]
  44 000c 0593     		str	r3, [sp, #20]
  38:Core/Src/tim.c ****   TIM_MasterConfigTypeDef sMasterConfig = {0};
  45              		.loc 1 38 3 is_stmt 1 view .LVU3
  46              		.loc 1 38 27 is_stmt 0 view .LVU4
  47 000e 0093     		str	r3, [sp]
  48 0010 0193     		str	r3, [sp, #4]
  39:Core/Src/tim.c **** 
  40:Core/Src/tim.c ****   /* USER CODE BEGIN TIM2_Init 1 */
  41:Core/Src/tim.c **** 
  42:Core/Src/tim.c ****   /* USER CODE END TIM2_Init 1 */
  43:Core/Src/tim.c ****   htim2.Instance = TIM2;
  49              		.loc 1 43 3 is_stmt 1 view .LVU5
  50              		.loc 1 43 18 is_stmt 0 view .LVU6
  51 0012 1648     		ldr	r0, .L9
  52 0014 4FF08042 		mov	r2, #1073741824
  53 0018 0260     		str	r2, [r0]
  44:Core/Src/tim.c ****   htim2.Init.Prescaler = 719;
  54              		.loc 1 44 3 is_stmt 1 view .LVU7
  55              		.loc 1 44 24 is_stmt 0 view .LVU8
  56 001a 40F2CF22 		movw	r2, #719
  57 001e 4260     		str	r2, [r0, #4]
  45:Core/Src/tim.c ****   htim2.Init.CounterMode = TIM_COUNTERMODE_DOWN;
  58              		.loc 1 45 3 is_stmt 1 view .LVU9
  59              		.loc 1 45 26 is_stmt 0 view .LVU10
  60 0020 1022     		movs	r2, #16
  61 0022 8260     		str	r2, [r0, #8]
  46:Core/Src/tim.c ****   htim2.Init.Period = 99;
  62              		.loc 1 46 3 is_stmt 1 view .LVU11
  63              		.loc 1 46 21 is_stmt 0 view .LVU12
  64 0024 6322     		movs	r2, #99
  65 0026 C260     		str	r2, [r0, #12]
  47:Core/Src/tim.c ****   htim2.Init.ClockDivision = TIM_CLOCKDIVISION_DIV1;
  66              		.loc 1 47 3 is_stmt 1 view .LVU13
  67              		.loc 1 47 28 is_stmt 0 view .LVU14
  68 0028 0361     		str	r3, [r0, #16]
ARM GAS  C:\Users\Vento\AppData\Local\Temp\ccRQpzlo.s 			page 3


  48:Core/Src/tim.c ****   htim2.Init.AutoReloadPreload = TIM_AUTORELOAD_PRELOAD_DISABLE;
  69              		.loc 1 48 3 is_stmt 1 view .LVU15
  70              		.loc 1 48 32 is_stmt 0 view .LVU16
  71 002a 8361     		str	r3, [r0, #24]
  49:Core/Src/tim.c ****   if (HAL_TIM_Base_Init(&htim2) != HAL_OK)
  72              		.loc 1 49 3 is_stmt 1 view .LVU17
  73              		.loc 1 49 7 is_stmt 0 view .LVU18
  74 002c FFF7FEFF 		bl	HAL_TIM_Base_Init
  75              	.LVL0:
  76              		.loc 1 49 6 view .LVU19
  77 0030 90B9     		cbnz	r0, .L6
  78              	.L2:
  50:Core/Src/tim.c ****   {
  51:Core/Src/tim.c ****     Error_Handler();
  52:Core/Src/tim.c ****   }
  53:Core/Src/tim.c ****   sClockSourceConfig.ClockSource = TIM_CLOCKSOURCE_INTERNAL;
  79              		.loc 1 53 3 is_stmt 1 view .LVU20
  80              		.loc 1 53 34 is_stmt 0 view .LVU21
  81 0032 4FF48053 		mov	r3, #4096
  82 0036 0293     		str	r3, [sp, #8]
  54:Core/Src/tim.c ****   if (HAL_TIM_ConfigClockSource(&htim2, &sClockSourceConfig) != HAL_OK)
  83              		.loc 1 54 3 is_stmt 1 view .LVU22
  84              		.loc 1 54 7 is_stmt 0 view .LVU23
  85 0038 02A9     		add	r1, sp, #8
  86 003a 0C48     		ldr	r0, .L9
  87 003c FFF7FEFF 		bl	HAL_TIM_ConfigClockSource
  88              	.LVL1:
  89              		.loc 1 54 6 view .LVU24
  90 0040 68B9     		cbnz	r0, .L7
  91              	.L3:
  55:Core/Src/tim.c ****   {
  56:Core/Src/tim.c ****     Error_Handler();
  57:Core/Src/tim.c ****   }
  58:Core/Src/tim.c ****   sMasterConfig.MasterOutputTrigger = TIM_TRGO_RESET;
  92              		.loc 1 58 3 is_stmt 1 view .LVU25
  93              		.loc 1 58 37 is_stmt 0 view .LVU26
  94 0042 0023     		movs	r3, #0
  95 0044 0093     		str	r3, [sp]
  59:Core/Src/tim.c ****   sMasterConfig.MasterSlaveMode = TIM_MASTERSLAVEMODE_DISABLE;
  96              		.loc 1 59 3 is_stmt 1 view .LVU27
  97              		.loc 1 59 33 is_stmt 0 view .LVU28
  98 0046 0193     		str	r3, [sp, #4]
  60:Core/Src/tim.c ****   if (HAL_TIMEx_MasterConfigSynchronization(&htim2, &sMasterConfig) != HAL_OK)
  99              		.loc 1 60 3 is_stmt 1 view .LVU29
 100              		.loc 1 60 7 is_stmt 0 view .LVU30
 101 0048 6946     		mov	r1, sp
 102 004a 0848     		ldr	r0, .L9
 103 004c FFF7FEFF 		bl	HAL_TIMEx_MasterConfigSynchronization
 104              	.LVL2:
 105              		.loc 1 60 6 view .LVU31
 106 0050 40B9     		cbnz	r0, .L8
 107              	.L1:
  61:Core/Src/tim.c ****   {
  62:Core/Src/tim.c ****     Error_Handler();
  63:Core/Src/tim.c ****   }
  64:Core/Src/tim.c ****   /* USER CODE BEGIN TIM2_Init 2 */
  65:Core/Src/tim.c **** 
ARM GAS  C:\Users\Vento\AppData\Local\Temp\ccRQpzlo.s 			page 4


  66:Core/Src/tim.c ****   /* USER CODE END TIM2_Init 2 */
  67:Core/Src/tim.c **** 
  68:Core/Src/tim.c **** }
 108              		.loc 1 68 1 view .LVU32
 109 0052 07B0     		add	sp, sp, #28
 110              	.LCFI2:
 111              		.cfi_remember_state
 112              		.cfi_def_cfa_offset 4
 113              		@ sp needed
 114 0054 5DF804FB 		ldr	pc, [sp], #4
 115              	.L6:
 116              	.LCFI3:
 117              		.cfi_restore_state
  51:Core/Src/tim.c ****   }
 118              		.loc 1 51 5 is_stmt 1 view .LVU33
 119 0058 FFF7FEFF 		bl	Error_Handler
 120              	.LVL3:
 121 005c E9E7     		b	.L2
 122              	.L7:
  56:Core/Src/tim.c ****   }
 123              		.loc 1 56 5 view .LVU34
 124 005e FFF7FEFF 		bl	Error_Handler
 125              	.LVL4:
 126 0062 EEE7     		b	.L3
 127              	.L8:
  62:Core/Src/tim.c ****   }
 128              		.loc 1 62 5 view .LVU35
 129 0064 FFF7FEFF 		bl	Error_Handler
 130              	.LVL5:
 131              		.loc 1 68 1 is_stmt 0 view .LVU36
 132 0068 F3E7     		b	.L1
 133              	.L10:
 134 006a 00BF     		.align	2
 135              	.L9:
 136 006c 00000000 		.word	.LANCHOR0
 137              		.cfi_endproc
 138              	.LFE65:
 140              		.section	.text.HAL_TIM_Base_MspInit,"ax",%progbits
 141              		.align	1
 142              		.global	HAL_TIM_Base_MspInit
 143              		.syntax unified
 144              		.thumb
 145              		.thumb_func
 146              		.fpu softvfp
 148              	HAL_TIM_Base_MspInit:
 149              	.LVL6:
 150              	.LFB66:
  69:Core/Src/tim.c **** 
  70:Core/Src/tim.c **** void HAL_TIM_Base_MspInit(TIM_HandleTypeDef* tim_baseHandle)
  71:Core/Src/tim.c **** {
 151              		.loc 1 71 1 is_stmt 1 view -0
 152              		.cfi_startproc
 153              		@ args = 0, pretend = 0, frame = 8
 154              		@ frame_needed = 0, uses_anonymous_args = 0
  72:Core/Src/tim.c **** 
  73:Core/Src/tim.c ****   if(tim_baseHandle->Instance==TIM2)
 155              		.loc 1 73 3 view .LVU38
ARM GAS  C:\Users\Vento\AppData\Local\Temp\ccRQpzlo.s 			page 5


 156              		.loc 1 73 20 is_stmt 0 view .LVU39
 157 0000 0368     		ldr	r3, [r0]
 158              		.loc 1 73 5 view .LVU40
 159 0002 B3F1804F 		cmp	r3, #1073741824
 160 0006 00D0     		beq	.L17
 161 0008 7047     		bx	lr
 162              	.L17:
  71:Core/Src/tim.c **** 
 163              		.loc 1 71 1 view .LVU41
 164 000a 00B5     		push	{lr}
 165              	.LCFI4:
 166              		.cfi_def_cfa_offset 4
 167              		.cfi_offset 14, -4
 168 000c 83B0     		sub	sp, sp, #12
 169              	.LCFI5:
 170              		.cfi_def_cfa_offset 16
  74:Core/Src/tim.c ****   {
  75:Core/Src/tim.c ****   /* USER CODE BEGIN TIM2_MspInit 0 */
  76:Core/Src/tim.c **** 
  77:Core/Src/tim.c ****   /* USER CODE END TIM2_MspInit 0 */
  78:Core/Src/tim.c ****     /* TIM2 clock enable */
  79:Core/Src/tim.c ****     __HAL_RCC_TIM2_CLK_ENABLE();
 171              		.loc 1 79 5 is_stmt 1 view .LVU42
 172              	.LBB2:
 173              		.loc 1 79 5 view .LVU43
 174              		.loc 1 79 5 view .LVU44
 175 000e 03F50433 		add	r3, r3, #135168
 176 0012 DA69     		ldr	r2, [r3, #28]
 177 0014 42F00102 		orr	r2, r2, #1
 178 0018 DA61     		str	r2, [r3, #28]
 179              		.loc 1 79 5 view .LVU45
 180 001a DB69     		ldr	r3, [r3, #28]
 181 001c 03F00103 		and	r3, r3, #1
 182 0020 0193     		str	r3, [sp, #4]
 183              		.loc 1 79 5 view .LVU46
 184 0022 019B     		ldr	r3, [sp, #4]
 185              	.LBE2:
 186              		.loc 1 79 5 view .LVU47
  80:Core/Src/tim.c **** 
  81:Core/Src/tim.c ****     /* TIM2 interrupt Init */
  82:Core/Src/tim.c ****     HAL_NVIC_SetPriority(TIM2_IRQn, 5, 0);
 187              		.loc 1 82 5 view .LVU48
 188 0024 0022     		movs	r2, #0
 189 0026 0521     		movs	r1, #5
 190 0028 1C20     		movs	r0, #28
 191              	.LVL7:
 192              		.loc 1 82 5 is_stmt 0 view .LVU49
 193 002a FFF7FEFF 		bl	HAL_NVIC_SetPriority
 194              	.LVL8:
  83:Core/Src/tim.c ****     HAL_NVIC_EnableIRQ(TIM2_IRQn);
 195              		.loc 1 83 5 is_stmt 1 view .LVU50
 196 002e 1C20     		movs	r0, #28
 197 0030 FFF7FEFF 		bl	HAL_NVIC_EnableIRQ
 198              	.LVL9:
  84:Core/Src/tim.c ****   /* USER CODE BEGIN TIM2_MspInit 1 */
  85:Core/Src/tim.c **** 
  86:Core/Src/tim.c ****   /* USER CODE END TIM2_MspInit 1 */
ARM GAS  C:\Users\Vento\AppData\Local\Temp\ccRQpzlo.s 			page 6


  87:Core/Src/tim.c ****   }
  88:Core/Src/tim.c **** }
 199              		.loc 1 88 1 is_stmt 0 view .LVU51
 200 0034 03B0     		add	sp, sp, #12
 201              	.LCFI6:
 202              		.cfi_def_cfa_offset 4
 203              		@ sp needed
 204 0036 5DF804FB 		ldr	pc, [sp], #4
 205              		.cfi_endproc
 206              	.LFE66:
 208              		.section	.text.HAL_TIM_Base_MspDeInit,"ax",%progbits
 209              		.align	1
 210              		.global	HAL_TIM_Base_MspDeInit
 211              		.syntax unified
 212              		.thumb
 213              		.thumb_func
 214              		.fpu softvfp
 216              	HAL_TIM_Base_MspDeInit:
 217              	.LVL10:
 218              	.LFB67:
  89:Core/Src/tim.c **** 
  90:Core/Src/tim.c **** void HAL_TIM_Base_MspDeInit(TIM_HandleTypeDef* tim_baseHandle)
  91:Core/Src/tim.c **** {
 219              		.loc 1 91 1 is_stmt 1 view -0
 220              		.cfi_startproc
 221              		@ args = 0, pretend = 0, frame = 0
 222              		@ frame_needed = 0, uses_anonymous_args = 0
 223              		.loc 1 91 1 is_stmt 0 view .LVU53
 224 0000 08B5     		push	{r3, lr}
 225              	.LCFI7:
 226              		.cfi_def_cfa_offset 8
 227              		.cfi_offset 3, -8
 228              		.cfi_offset 14, -4
  92:Core/Src/tim.c **** 
  93:Core/Src/tim.c ****   if(tim_baseHandle->Instance==TIM2)
 229              		.loc 1 93 3 is_stmt 1 view .LVU54
 230              		.loc 1 93 20 is_stmt 0 view .LVU55
 231 0002 0368     		ldr	r3, [r0]
 232              		.loc 1 93 5 view .LVU56
 233 0004 B3F1804F 		cmp	r3, #1073741824
 234 0008 00D0     		beq	.L21
 235              	.LVL11:
 236              	.L18:
  94:Core/Src/tim.c ****   {
  95:Core/Src/tim.c ****   /* USER CODE BEGIN TIM2_MspDeInit 0 */
  96:Core/Src/tim.c **** 
  97:Core/Src/tim.c ****   /* USER CODE END TIM2_MspDeInit 0 */
  98:Core/Src/tim.c ****     /* Peripheral clock disable */
  99:Core/Src/tim.c ****     __HAL_RCC_TIM2_CLK_DISABLE();
 100:Core/Src/tim.c **** 
 101:Core/Src/tim.c ****     /* TIM2 interrupt Deinit */
 102:Core/Src/tim.c ****     HAL_NVIC_DisableIRQ(TIM2_IRQn);
 103:Core/Src/tim.c ****   /* USER CODE BEGIN TIM2_MspDeInit 1 */
 104:Core/Src/tim.c **** 
 105:Core/Src/tim.c ****   /* USER CODE END TIM2_MspDeInit 1 */
 106:Core/Src/tim.c ****   }
 107:Core/Src/tim.c **** }
ARM GAS  C:\Users\Vento\AppData\Local\Temp\ccRQpzlo.s 			page 7


 237              		.loc 1 107 1 view .LVU57
 238 000a 08BD     		pop	{r3, pc}
 239              	.LVL12:
 240              	.L21:
  99:Core/Src/tim.c **** 
 241              		.loc 1 99 5 is_stmt 1 view .LVU58
 242 000c 044A     		ldr	r2, .L22
 243 000e D369     		ldr	r3, [r2, #28]
 244 0010 23F00103 		bic	r3, r3, #1
 245 0014 D361     		str	r3, [r2, #28]
 102:Core/Src/tim.c ****   /* USER CODE BEGIN TIM2_MspDeInit 1 */
 246              		.loc 1 102 5 view .LVU59
 247 0016 1C20     		movs	r0, #28
 248              	.LVL13:
 102:Core/Src/tim.c ****   /* USER CODE BEGIN TIM2_MspDeInit 1 */
 249              		.loc 1 102 5 is_stmt 0 view .LVU60
 250 0018 FFF7FEFF 		bl	HAL_NVIC_DisableIRQ
 251              	.LVL14:
 252              		.loc 1 107 1 view .LVU61
 253 001c F5E7     		b	.L18
 254              	.L23:
 255 001e 00BF     		.align	2
 256              	.L22:
 257 0020 00100240 		.word	1073876992
 258              		.cfi_endproc
 259              	.LFE67:
 261              		.global	htim2
 262              		.section	.bss.htim2,"aw",%nobits
 263              		.align	2
 264              		.set	.LANCHOR0,. + 0
 267              	htim2:
 268 0000 00000000 		.space	72
 268      00000000 
 268      00000000 
 268      00000000 
 268      00000000 
 269              		.text
 270              	.Letext0:
 271              		.file 2 "d:\\tools\\gcc-arm-none-eabi-10.3-2021.07\\arm-none-eabi\\include\\machine\\_default_type
 272              		.file 3 "d:\\tools\\gcc-arm-none-eabi-10.3-2021.07\\arm-none-eabi\\include\\sys\\_stdint.h"
 273              		.file 4 "Drivers/CMSIS/Device/ST/STM32F1xx/Include/stm32f103xb.h"
 274              		.file 5 "Drivers/STM32F1xx_HAL_Driver/Inc/stm32f1xx_hal_def.h"
 275              		.file 6 "Drivers/STM32F1xx_HAL_Driver/Inc/stm32f1xx_hal_dma.h"
 276              		.file 7 "Drivers/STM32F1xx_HAL_Driver/Inc/stm32f1xx_hal_tim.h"
 277              		.file 8 "Drivers/STM32F1xx_HAL_Driver/Inc/stm32f1xx_hal_cortex.h"
 278              		.file 9 "Drivers/STM32F1xx_HAL_Driver/Inc/stm32f1xx_hal_tim_ex.h"
 279              		.file 10 "Core/Inc/main.h"
 280              		.file 11 "Core/Inc/tim.h"
ARM GAS  C:\Users\Vento\AppData\Local\Temp\ccRQpzlo.s 			page 8

